ARM GAS  C:\Users\XieFang\AppData\Local\Temp\ccBi1CPH.s 			page 1


   1              		.cpu cortex-m3
   2              		.eabi_attribute 20, 1
   3              		.eabi_attribute 21, 1
   4              		.eabi_attribute 23, 3
   5              		.eabi_attribute 24, 1
   6              		.eabi_attribute 25, 1
   7              		.eabi_attribute 26, 1
   8              		.eabi_attribute 30, 1
   9              		.eabi_attribute 34, 1
  10              		.eabi_attribute 18, 4
  11              		.file	"cli.cpp"
  12              		.text
  13              	.Ltext0:
  14              		.cfi_sections	.debug_frame
  15              		.section	.text._ZN5xiagb15parserNamespace12cliNamespace14prvHelpCommandEPcjPKc,"ax",%progbits
  16              		.align	1
  17              		.global	_ZN5xiagb15parserNamespace12cliNamespace14prvHelpCommandEPcjPKc
  18              		.arch armv7-m
  19              		.syntax unified
  20              		.thumb
  21              		.thumb_func
  22              		.fpu softvfp
  24              	_ZN5xiagb15parserNamespace12cliNamespace14prvHelpCommandEPcjPKc:
  25              		.fnstart
  26              	.LVL0:
  27              	.LFB314:
  28              		.file 1 "xiagb/bottom/cli.cpp"
   1:xiagb/bottom/cli.cpp **** #include "cli.hpp"
   2:xiagb/bottom/cli.cpp **** #include "task.h"
   3:xiagb/bottom/cli.cpp **** #include "string.h"
   4:xiagb/bottom/cli.cpp **** #include "stdio.h"
   5:xiagb/bottom/cli.cpp **** #include "math.h"
   6:xiagb/bottom/cli.cpp **** 
   7:xiagb/bottom/cli.cpp **** namespace xiagb
   8:xiagb/bottom/cli.cpp **** {
   9:xiagb/bottom/cli.cpp ****     namespace parserNamespace
  10:xiagb/bottom/cli.cpp ****     {
  11:xiagb/bottom/cli.cpp ****         namespace cliNamespace
  12:xiagb/bottom/cli.cpp ****         {
  13:xiagb/bottom/cli.cpp ****             const char *const echoCommandStr = "echo";
  14:xiagb/bottom/cli.cpp ****             typedef bool (*cmd_callback)(char *pcWriteBuffer, size_t xWriteBufferLen, const char *p
  15:xiagb/bottom/cli.cpp ****             bool cliClass::registerFlag;
  16:xiagb/bottom/cli.cpp **** 
  17:xiagb/bottom/cli.cpp ****             struct cmd
  18:xiagb/bottom/cli.cpp ****             {
  19:xiagb/bottom/cli.cpp ****                 const char *const pcCommand;             /* The command that causes pxCommandInterp
  20:xiagb/bottom/cli.cpp ****                 const char *const pcHelpString;          /* String that describes how to use the co
  21:xiagb/bottom/cli.cpp ****                 const cmd_callback pxCommandInterpreter; /* A pointer to the callback function that
  22:xiagb/bottom/cli.cpp ****                 int8_t cExpectedNumberOfParameters;      /* Commands expect a fixed number of param
  23:xiagb/bottom/cli.cpp ****             };
  24:xiagb/bottom/cli.cpp **** 
  25:xiagb/bottom/cli.cpp ****             struct cmd_list
  26:xiagb/bottom/cli.cpp ****             {
  27:xiagb/bottom/cli.cpp ****                 const cmd *pxCommandLineDefinition;
  28:xiagb/bottom/cli.cpp ****                 cmd_list *pxNext;
  29:xiagb/bottom/cli.cpp ****             };
  30:xiagb/bottom/cli.cpp **** 
ARM GAS  C:\Users\XieFang\AppData\Local\Temp\ccBi1CPH.s 			page 2


  31:xiagb/bottom/cli.cpp ****             bool FreeRTOS_CLIProcessCommand(const char *const pcCommandInput, char *pcWriteBuffer, 
  32:xiagb/bottom/cli.cpp ****             bool FreeRTOS_CLIRegisterCommand(const cmd *const pxCommandToRegister);
  33:xiagb/bottom/cli.cpp ****             int8_t prvGetNumberOfParameters(const char *pcCommandString);
  34:xiagb/bottom/cli.cpp ****             void vRegisterSampleCLICommands();
  35:xiagb/bottom/cli.cpp **** 
  36:xiagb/bottom/cli.cpp ****             bool prvHelpCommand(char *pcWriteBuffer, size_t xWriteBufferLen, const char *pcCommandS
  37:xiagb/bottom/cli.cpp ****             bool prvTaskStatsCommand(char *pcWriteBuffer, size_t xWriteBufferLen, const char *pcCom
  38:xiagb/bottom/cli.cpp ****             bool prvQueryHeapCommand(char *pcWriteBuffer, size_t xWriteBufferLen, const char *pcCom
  39:xiagb/bottom/cli.cpp ****             bool prvParameterEchoCommand(char *pcWriteBuffer, size_t xWriteBufferLen, const char *p
  40:xiagb/bottom/cli.cpp **** 
  41:xiagb/bottom/cli.cpp ****             const cmd xHelpCommand = {
  42:xiagb/bottom/cli.cpp ****                 "help",
  43:xiagb/bottom/cli.cpp ****                 "\r\nhelp:\r\n Lists all the registered commands.\r\n",
  44:xiagb/bottom/cli.cpp ****                 prvHelpCommand,
  45:xiagb/bottom/cli.cpp ****                 0};
  46:xiagb/bottom/cli.cpp **** 
  47:xiagb/bottom/cli.cpp ****             const cmd xTaskStats = {
  48:xiagb/bottom/cli.cpp ****                 "task-stats", /* The command string to type. */
  49:xiagb/bottom/cli.cpp ****                 "\r\ntask-stats:\r\n Displays a table showing the state of each FreeRTOS task.\r\n"
  50:xiagb/bottom/cli.cpp ****                 prvTaskStatsCommand, /* The function to run. */
  51:xiagb/bottom/cli.cpp ****                 0                    /* No parameters are expected. */
  52:xiagb/bottom/cli.cpp ****             };
  53:xiagb/bottom/cli.cpp **** 
  54:xiagb/bottom/cli.cpp ****             const cmd xQueryHeap = {
  55:xiagb/bottom/cli.cpp ****                 "query-heap",
  56:xiagb/bottom/cli.cpp ****                 "\r\nquery-heap:\r\n Displays the free heap space, and minimum ever free heap space
  57:xiagb/bottom/cli.cpp ****                 prvQueryHeapCommand, /* The function to run. */
  58:xiagb/bottom/cli.cpp ****                 0                    /* The user can enter any number of commands. */
  59:xiagb/bottom/cli.cpp ****             };
  60:xiagb/bottom/cli.cpp **** 
  61:xiagb/bottom/cli.cpp ****             const cmd xParameterEcho = {
  62:xiagb/bottom/cli.cpp ****                 echoCommandStr,
  63:xiagb/bottom/cli.cpp ****                 "\r\necho <...>:\r\n Take variable number of parameters, echos each in turn.\r\n",
  64:xiagb/bottom/cli.cpp ****                 prvParameterEchoCommand, /* The function to run. */
  65:xiagb/bottom/cli.cpp ****                 -1                       /* The user can enter any number of commands. */
  66:xiagb/bottom/cli.cpp ****             };
  67:xiagb/bottom/cli.cpp **** 
  68:xiagb/bottom/cli.cpp ****             cmd_list xRegisteredCommands = {
  69:xiagb/bottom/cli.cpp ****                 &xHelpCommand,
  70:xiagb/bottom/cli.cpp ****                 NULL};
  71:xiagb/bottom/cli.cpp **** 
  72:xiagb/bottom/cli.cpp ****             const char *const welcomeStr = "FreeRTOS command server.\r\nType Help to view a list of
  73:xiagb/bottom/cli.cpp ****             const char *const endStr = "\r\n[Press ENTER to execute the previous command again]\r\n
  74:xiagb/bottom/cli.cpp ****             const char *const newLineStr = "\r\n";
  75:xiagb/bottom/cli.cpp **** 
  76:xiagb/bottom/cli.cpp ****             osMessageQueueId_t echoDataQueue;
  77:xiagb/bottom/cli.cpp **** 
  78:xiagb/bottom/cli.cpp ****             cliClass::cliClass()
  79:xiagb/bottom/cli.cpp ****             {
  80:xiagb/bottom/cli.cpp ****             }
  81:xiagb/bottom/cli.cpp **** 
  82:xiagb/bottom/cli.cpp ****             cliClass::~cliClass()
  83:xiagb/bottom/cli.cpp ****             {
  84:xiagb/bottom/cli.cpp ****             }
  85:xiagb/bottom/cli.cpp **** 
  86:xiagb/bottom/cli.cpp ****             void cliClass::init(uartClass *uartHandle)
  87:xiagb/bottom/cli.cpp ****             {
ARM GAS  C:\Users\XieFang\AppData\Local\Temp\ccBi1CPH.s 			page 3


  88:xiagb/bottom/cli.cpp ****                 this->uartHandle = uartHandle;
  89:xiagb/bottom/cli.cpp **** 
  90:xiagb/bottom/cli.cpp ****                 mutex = osMutexNew(nullptr);
  91:xiagb/bottom/cli.cpp ****                 while (mutex == 0)
  92:xiagb/bottom/cli.cpp ****                     ;
  93:xiagb/bottom/cli.cpp **** 
  94:xiagb/bottom/cli.cpp ****                 rxQueue = osMessageQueueNew(rxQueueCount, sizeof(uint8_t), nullptr);
  95:xiagb/bottom/cli.cpp ****                 while (rxQueue == 0)
  96:xiagb/bottom/cli.cpp ****                     ;
  97:xiagb/bottom/cli.cpp **** 
  98:xiagb/bottom/cli.cpp ****                 inputBuffer = new uint8_t[inputBufferSize];
  99:xiagb/bottom/cli.cpp ****                 while (inputBuffer == 0)
 100:xiagb/bottom/cli.cpp ****                     ;
 101:xiagb/bottom/cli.cpp ****                 lastCommandBuffer = new uint8_t[inputBufferSize];
 102:xiagb/bottom/cli.cpp ****                 while (lastCommandBuffer == 0)
 103:xiagb/bottom/cli.cpp ****                     ;
 104:xiagb/bottom/cli.cpp ****                 outputBuffer = new uint8_t[outputBufferSize];
 105:xiagb/bottom/cli.cpp ****                 while (outputBuffer == 0)
 106:xiagb/bottom/cli.cpp ****                     ;
 107:xiagb/bottom/cli.cpp **** 
 108:xiagb/bottom/cli.cpp ****                 outputStr((uint8_t *)welcomeStr); //Ê¨¢ËøéËØ≠
 109:xiagb/bottom/cli.cpp **** 
 110:xiagb/bottom/cli.cpp ****                 //Ê≥®ÂÜåÂëΩ‰ª§
 111:xiagb/bottom/cli.cpp ****                 vRegisterSampleCLICommands();
 112:xiagb/bottom/cli.cpp ****             }
 113:xiagb/bottom/cli.cpp **** 
 114:xiagb/bottom/cli.cpp ****             void cliClass::outputChar(uint8_t data)
 115:xiagb/bottom/cli.cpp ****             {
 116:xiagb/bottom/cli.cpp ****                 if (uartHandle && feedbackFlag)
 117:xiagb/bottom/cli.cpp ****                     uartHandle->send(&data, 1);
 118:xiagb/bottom/cli.cpp ****             }
 119:xiagb/bottom/cli.cpp **** 
 120:xiagb/bottom/cli.cpp ****             void cliClass::outputStr(uint8_t *data)
 121:xiagb/bottom/cli.cpp ****             {
 122:xiagb/bottom/cli.cpp ****                 // while (*data)
 123:xiagb/bottom/cli.cpp ****                 // {
 124:xiagb/bottom/cli.cpp ****                 //     outputChar(*data);
 125:xiagb/bottom/cli.cpp ****                 //     data++;
 126:xiagb/bottom/cli.cpp ****                 // }
 127:xiagb/bottom/cli.cpp ****                 if (uartHandle && feedbackFlag)
 128:xiagb/bottom/cli.cpp ****                     uartHandle->send(data, strlen((const char *)data));
 129:xiagb/bottom/cli.cpp ****             }
 130:xiagb/bottom/cli.cpp **** 
 131:xiagb/bottom/cli.cpp ****             osStatus_t cliClass::getChar(uint8_t *pcRxedChar) { return osMessageQueueGet(rxQueue, p
 132:xiagb/bottom/cli.cpp ****             void cliClass::setChar(uint8_t *data) { osMessageQueuePut(rxQueue, data, 0, osWaitForev
 133:xiagb/bottom/cli.cpp ****             void cliClass::setEchoQueue(osMessageQueueId_t argQueueI32)
 134:xiagb/bottom/cli.cpp ****             {
 135:xiagb/bottom/cli.cpp ****                 echoDataQueue = argQueueI32;
 136:xiagb/bottom/cli.cpp ****             }
 137:xiagb/bottom/cli.cpp **** 
 138:xiagb/bottom/cli.cpp ****             // void cliClass::setStr(uint8_t *data, uint16_t size)
 139:xiagb/bottom/cli.cpp ****             // {
 140:xiagb/bottom/cli.cpp ****             //     osMutexAcquire(mutex, osWaitForever);
 141:xiagb/bottom/cli.cpp ****             //     for (uint16_t i = 0; i < size; i++)
 142:xiagb/bottom/cli.cpp ****             //     {
 143:xiagb/bottom/cli.cpp ****             //         setChar(&data[i]);
 144:xiagb/bottom/cli.cpp ****             //     }
ARM GAS  C:\Users\XieFang\AppData\Local\Temp\ccBi1CPH.s 			page 4


 145:xiagb/bottom/cli.cpp ****             //     osMutexRelease(mutex);
 146:xiagb/bottom/cli.cpp ****             // }
 147:xiagb/bottom/cli.cpp **** 
 148:xiagb/bottom/cli.cpp ****             void cliClass::receiveQueueStr(osMessageQueueId_t queue)
 149:xiagb/bottom/cli.cpp ****             {
 150:xiagb/bottom/cli.cpp ****                 uint8_t buffer;
 151:xiagb/bottom/cli.cpp ****                 while (osMessageQueueGet(queue, &buffer, nullptr, 0) == osOK) //Êï∞ÊçÆÈÉΩÊòØÊèêÂâçÂ
 152:xiagb/bottom/cli.cpp ****                 {
 153:xiagb/bottom/cli.cpp ****                     setChar(&buffer);
 154:xiagb/bottom/cli.cpp ****                 }
 155:xiagb/bottom/cli.cpp ****             }
 156:xiagb/bottom/cli.cpp **** 
 157:xiagb/bottom/cli.cpp ****             void cliClass::loop()
 158:xiagb/bottom/cli.cpp ****             {
 159:xiagb/bottom/cli.cpp ****                 uint8_t buffer;
 160:xiagb/bottom/cli.cpp ****                 while (getChar(&buffer) == osOK)
 161:xiagb/bottom/cli.cpp ****                 {
 162:xiagb/bottom/cli.cpp ****                     /* Echo the character back. */
 163:xiagb/bottom/cli.cpp ****                     outputChar(buffer);
 164:xiagb/bottom/cli.cpp **** 
 165:xiagb/bottom/cli.cpp ****                     /* Was it the end of the line? */
 166:xiagb/bottom/cli.cpp ****                     if (buffer == '\n' || buffer == '\r')
 167:xiagb/bottom/cli.cpp ****                     {
 168:xiagb/bottom/cli.cpp ****                         /* Just to space the output from the input. */
 169:xiagb/bottom/cli.cpp ****                         outputStr((uint8_t *)newLineStr);
 170:xiagb/bottom/cli.cpp **** 
 171:xiagb/bottom/cli.cpp ****                         /* See if the command is empty, indicating that the last command
 172:xiagb/bottom/cli.cpp ****             is to be executed again. */
 173:xiagb/bottom/cli.cpp ****                         if (inputBufferIndex == 0)
 174:xiagb/bottom/cli.cpp ****                         {
 175:xiagb/bottom/cli.cpp ****                             /* Copy the last command back into the input string. */
 176:xiagb/bottom/cli.cpp ****                             strcpy((char *)inputBuffer, (char *)lastCommandBuffer);
 177:xiagb/bottom/cli.cpp ****                         }
 178:xiagb/bottom/cli.cpp **** 
 179:xiagb/bottom/cli.cpp ****                         /* Pass the received command to the command interpreter.  The
 180:xiagb/bottom/cli.cpp ****             command interpreter is called repeatedly until it returns
 181:xiagb/bottom/cli.cpp ****             pdFALSE	(indicating there is no more output) as it might
 182:xiagb/bottom/cli.cpp ****             generate more than one string. */
 183:xiagb/bottom/cli.cpp ****                         bool xReturned;
 184:xiagb/bottom/cli.cpp ****                         const cmd_list *pxCommand = nullptr; //ÈáçÂ§çÊâßË°åÊó∂ËÆ∞‰ΩèÂëΩ‰ª§ÔºåÈÅøÂÖç
 185:xiagb/bottom/cli.cpp ****                         do
 186:xiagb/bottom/cli.cpp ****                         {
 187:xiagb/bottom/cli.cpp ****                             /* Get the next output string from the command interpreter. */
 188:xiagb/bottom/cli.cpp ****                             xReturned = FreeRTOS_CLIProcessCommand((char *)inputBuffer, (char *)out
 189:xiagb/bottom/cli.cpp **** 
 190:xiagb/bottom/cli.cpp ****                             /* Write the generated string to the UART. */
 191:xiagb/bottom/cli.cpp ****                             outputStr(outputBuffer);
 192:xiagb/bottom/cli.cpp **** 
 193:xiagb/bottom/cli.cpp ****                         } while (xReturned != pdFALSE); //ÊúâÁöÑÂëΩ‰ª§ÈúÄË¶ÅÂ§öÊ¨°ÊâßË°åÔºåÂõ†‰∏∫Êú
 194:xiagb/bottom/cli.cpp **** 
 195:xiagb/bottom/cli.cpp ****                         /* All the strings generated by the input command have been
 196:xiagb/bottom/cli.cpp ****             sent.  Clear the input string ready to receive the next command.
 197:xiagb/bottom/cli.cpp ****             Remember the command that was just processed first in case it is
 198:xiagb/bottom/cli.cpp ****             to be processed again. */
 199:xiagb/bottom/cli.cpp ****                         strcpy((char *)outputBuffer, (char *)inputBuffer);
 200:xiagb/bottom/cli.cpp ****                         inputBufferIndex = 0;
 201:xiagb/bottom/cli.cpp ****                         memset(inputBuffer, 0x00, inputBufferSize);
ARM GAS  C:\Users\XieFang\AppData\Local\Temp\ccBi1CPH.s 			page 5


 202:xiagb/bottom/cli.cpp **** 
 203:xiagb/bottom/cli.cpp ****                         outputStr((uint8_t *)endStr);
 204:xiagb/bottom/cli.cpp ****                     }
 205:xiagb/bottom/cli.cpp ****                     else
 206:xiagb/bottom/cli.cpp ****                     {
 207:xiagb/bottom/cli.cpp ****                         if (buffer == '\r')
 208:xiagb/bottom/cli.cpp ****                         {
 209:xiagb/bottom/cli.cpp ****                             /* Ignore the character. */
 210:xiagb/bottom/cli.cpp ****                         }
 211:xiagb/bottom/cli.cpp ****                         else if ((buffer == '\b') || (buffer == 0x7f)) //0x7f‰∏∫ÈÄÄÊ†ºÈîÆ
 212:xiagb/bottom/cli.cpp ****                         {
 213:xiagb/bottom/cli.cpp ****                             /* Backspace was pressed.  Erase the last character in the
 214:xiagb/bottom/cli.cpp ****                 string - if any. */
 215:xiagb/bottom/cli.cpp ****                             if (inputBufferIndex > 0)
 216:xiagb/bottom/cli.cpp ****                             {
 217:xiagb/bottom/cli.cpp ****                                 inputBufferIndex--;
 218:xiagb/bottom/cli.cpp ****                                 inputBuffer[inputBufferIndex] = '\0';
 219:xiagb/bottom/cli.cpp ****                             }
 220:xiagb/bottom/cli.cpp ****                         }
 221:xiagb/bottom/cli.cpp ****                         else
 222:xiagb/bottom/cli.cpp ****                         {
 223:xiagb/bottom/cli.cpp ****                             /* A character was entered.  Add it to the string entered so
 224:xiagb/bottom/cli.cpp ****                 far.  When a \n is entered the complete	string will be
 225:xiagb/bottom/cli.cpp ****                 passed to the command interpreter. */
 226:xiagb/bottom/cli.cpp ****                             if ((buffer >= ' ') && (buffer <= '~'))
 227:xiagb/bottom/cli.cpp ****                             {
 228:xiagb/bottom/cli.cpp ****                                 if (inputBufferIndex < inputBufferSize)
 229:xiagb/bottom/cli.cpp ****                                 {
 230:xiagb/bottom/cli.cpp ****                                     inputBuffer[inputBufferIndex] = buffer;
 231:xiagb/bottom/cli.cpp ****                                     inputBufferIndex++;
 232:xiagb/bottom/cli.cpp ****                                 }
 233:xiagb/bottom/cli.cpp ****                             }
 234:xiagb/bottom/cli.cpp ****                         }
 235:xiagb/bottom/cli.cpp ****                     }
 236:xiagb/bottom/cli.cpp ****                 }
 237:xiagb/bottom/cli.cpp ****             }
 238:xiagb/bottom/cli.cpp **** 
 239:xiagb/bottom/cli.cpp ****             //Ê∑ªÂä†ÂëΩ‰ª§
 240:xiagb/bottom/cli.cpp ****             //ÂÖ®Â±ÄÂè™ÊâßË°å‰∏ÄÊ¨°
 241:xiagb/bottom/cli.cpp ****             bool FreeRTOS_CLIRegisterCommand(const cmd *const pxCommandToRegister)
 242:xiagb/bottom/cli.cpp ****             {
 243:xiagb/bottom/cli.cpp ****                 static cmd_list *pxLastCommandInList = &xRegisteredCommands; //ÊØèËøêË°å‰∏ÄÊ¨°Ôºåpx
 244:xiagb/bottom/cli.cpp ****                 bool xReturn = pdFAIL;
 245:xiagb/bottom/cli.cpp **** 
 246:xiagb/bottom/cli.cpp ****                 /* Check the parameter is not NULL. */
 247:xiagb/bottom/cli.cpp ****                 configASSERT(pxCommandToRegister);
 248:xiagb/bottom/cli.cpp **** 
 249:xiagb/bottom/cli.cpp ****                 /* Create a new list item that will reference the command being registered. */
 250:xiagb/bottom/cli.cpp ****                 // cmd_list *pxNewListItem = (cmd_list *)pvPortMalloc(sizeof(cmd_list));
 251:xiagb/bottom/cli.cpp ****                 cmd_list *pxNewListItem = new cmd_list;
 252:xiagb/bottom/cli.cpp ****                 configASSERT(pxNewListItem);
 253:xiagb/bottom/cli.cpp **** 
 254:xiagb/bottom/cli.cpp ****                 if (pxNewListItem != NULL)
 255:xiagb/bottom/cli.cpp ****                 {
 256:xiagb/bottom/cli.cpp ****                     taskENTER_CRITICAL();
 257:xiagb/bottom/cli.cpp ****                     {
 258:xiagb/bottom/cli.cpp ****                         /* Reference the command being registered from the newly created
ARM GAS  C:\Users\XieFang\AppData\Local\Temp\ccBi1CPH.s 			page 6


 259:xiagb/bottom/cli.cpp ****                 list item. */
 260:xiagb/bottom/cli.cpp ****                         pxNewListItem->pxCommandLineDefinition = pxCommandToRegister;
 261:xiagb/bottom/cli.cpp **** 
 262:xiagb/bottom/cli.cpp ****                         /* The new list item will get added to the end of the list, so
 263:xiagb/bottom/cli.cpp ****                 pxNext has nowhere to point. */
 264:xiagb/bottom/cli.cpp ****                         pxNewListItem->pxNext = NULL;
 265:xiagb/bottom/cli.cpp **** 
 266:xiagb/bottom/cli.cpp ****                         /* Add the newly created list item to the end of the already existing
 267:xiagb/bottom/cli.cpp ****                 list. */
 268:xiagb/bottom/cli.cpp ****                         pxLastCommandInList->pxNext = pxNewListItem;
 269:xiagb/bottom/cli.cpp **** 
 270:xiagb/bottom/cli.cpp ****                         /* Set the end of list marker to the new list item. */
 271:xiagb/bottom/cli.cpp ****                         pxLastCommandInList = pxNewListItem;
 272:xiagb/bottom/cli.cpp ****                     }
 273:xiagb/bottom/cli.cpp ****                     taskEXIT_CRITICAL();
 274:xiagb/bottom/cli.cpp **** 
 275:xiagb/bottom/cli.cpp ****                     xReturn = pdPASS;
 276:xiagb/bottom/cli.cpp ****                 }
 277:xiagb/bottom/cli.cpp **** 
 278:xiagb/bottom/cli.cpp ****                 return xReturn;
 279:xiagb/bottom/cli.cpp ****             }
 280:xiagb/bottom/cli.cpp **** 
 281:xiagb/bottom/cli.cpp ****             //ÊâæÂëΩ‰ª§ÔºåÊâæÂà∞Â∞±ÊâßË°å„ÄÇÊúâÁöÑÂëΩ‰ª§ÈúÄË¶ÅÂ§öÊ¨°ÊâßË°å
 282:xiagb/bottom/cli.cpp ****             bool FreeRTOS_CLIProcessCommand(const char *const pcCommandInput, char *pcWriteBuffer, 
 283:xiagb/bottom/cli.cpp ****             {
 284:xiagb/bottom/cli.cpp ****                 bool xReturn = pdTRUE;
 285:xiagb/bottom/cli.cpp ****                 const char *pcRegisteredCommandString;
 286:xiagb/bottom/cli.cpp ****                 size_t xCommandStringLength;
 287:xiagb/bottom/cli.cpp **** 
 288:xiagb/bottom/cli.cpp ****                 /* Note:  This function is not re-entrant.  It must not be called from more
 289:xiagb/bottom/cli.cpp ****         thank one task. */
 290:xiagb/bottom/cli.cpp **** 
 291:xiagb/bottom/cli.cpp ****                 if (pxCommand == NULL)
 292:xiagb/bottom/cli.cpp ****                 {
 293:xiagb/bottom/cli.cpp ****                     //ÈÅçÂéÜÂëΩ‰ª§ÂàóË°®
 294:xiagb/bottom/cli.cpp ****                     for (pxCommand = &xRegisteredCommands; pxCommand != NULL; pxCommand = pxCommand
 295:xiagb/bottom/cli.cpp ****                     {
 296:xiagb/bottom/cli.cpp ****                         //ÂàóË°®ÈáåÁöÑÂëΩ‰ª§Â≠óÁ¨¶‰∏≤
 297:xiagb/bottom/cli.cpp ****                         pcRegisteredCommandString = pxCommand->pxCommandLineDefinition->pcCommand;
 298:xiagb/bottom/cli.cpp ****                         //ËØ•Â≠óÁ¨¶‰∏≤ÈïøÂ∫¶
 299:xiagb/bottom/cli.cpp ****                         xCommandStringLength = strlen(pcRegisteredCommandString);
 300:xiagb/bottom/cli.cpp **** 
 301:xiagb/bottom/cli.cpp ****                         /* To ensure the string lengths match exactly, so as not to pick up
 302:xiagb/bottom/cli.cpp ****                 a sub-string of a longer command, check the byte after the expected
 303:xiagb/bottom/cli.cpp ****                 end of the string is either the end of the string or a space before
 304:xiagb/bottom/cli.cpp ****                 a parameter. */
 305:xiagb/bottom/cli.cpp ****                         if ((pcCommandInput[xCommandStringLength] == ' ') || (pcCommandInput[xComma
 306:xiagb/bottom/cli.cpp ****                         {
 307:xiagb/bottom/cli.cpp ****                             //ÊØîËæÉËæìÂÖ•ÁöÑÂíåÁé∞Â≠òÁöÑÂëΩ‰ª§ÊòØÂê¶Áõ∏Âêå
 308:xiagb/bottom/cli.cpp ****                             if (strncmp(pcCommandInput, pcRegisteredCommandString, xCommandStringLe
 309:xiagb/bottom/cli.cpp ****                             {
 310:xiagb/bottom/cli.cpp ****                                 /* The command has been found.  Check it has the expected
 311:xiagb/bottom/cli.cpp ****                         number of parameters.  If cExpectedNumberOfParameters is -1,
 312:xiagb/bottom/cli.cpp ****                         then there could be a variable number of parameters and no
 313:xiagb/bottom/cli.cpp ****                         check is made. */
 314:xiagb/bottom/cli.cpp ****                                 if (pxCommand->pxCommandLineDefinition->cExpectedNumberOfParameters
 315:xiagb/bottom/cli.cpp ****                                 {
ARM GAS  C:\Users\XieFang\AppData\Local\Temp\ccBi1CPH.s 			page 7


 316:xiagb/bottom/cli.cpp ****                                     if (prvGetNumberOfParameters(pcCommandInput) != pxCommand->pxCo
 317:xiagb/bottom/cli.cpp ****                                     {
 318:xiagb/bottom/cli.cpp ****                                         //ÂèÇÊï∞Êï∞Èáè‰∏çÂØπ
 319:xiagb/bottom/cli.cpp ****                                         xReturn = pdFALSE;
 320:xiagb/bottom/cli.cpp ****                                     }
 321:xiagb/bottom/cli.cpp ****                                 }
 322:xiagb/bottom/cli.cpp **** 
 323:xiagb/bottom/cli.cpp ****                                 break;
 324:xiagb/bottom/cli.cpp ****                             }
 325:xiagb/bottom/cli.cpp ****                         }
 326:xiagb/bottom/cli.cpp ****                     }
 327:xiagb/bottom/cli.cpp ****                 }
 328:xiagb/bottom/cli.cpp **** 
 329:xiagb/bottom/cli.cpp ****                 if ((pxCommand != NULL) && (xReturn == pdFALSE))
 330:xiagb/bottom/cli.cpp ****                 {
 331:xiagb/bottom/cli.cpp ****                     /* ÊâæÂà∞ÂëΩ‰ª§Ôºå‰ΩÜÂëΩ‰ª§ÁöÑÂèÇÊï∞Êï∞ÈáèÊòØ‰∏çÊ≠£Á°ÆÁöÑ */
 332:xiagb/bottom/cli.cpp ****                     strncpy(pcWriteBuffer, "Incorrect command parameter(s).  Enter \"help\" to view
 333:xiagb/bottom/cli.cpp ****                     pxCommand = NULL;
 334:xiagb/bottom/cli.cpp ****                 }
 335:xiagb/bottom/cli.cpp ****                 else if (pxCommand != NULL)
 336:xiagb/bottom/cli.cpp ****                 {
 337:xiagb/bottom/cli.cpp ****                     /* Ë∞ÉÁî®Ê≠§ÂëΩ‰ª§‰∏≠Ê≥®ÂÜåÁöÑÂõûË∞ÉÂáΩÊï∞„ÄÇÊúâÁöÑÂëΩ‰ª§ÈúÄË¶ÅÂ§öÊ¨°ÊâßË°å */
 338:xiagb/bottom/cli.cpp ****                     xReturn = pxCommand->pxCommandLineDefinition->pxCommandInterpreter(pcWriteBuffe
 339:xiagb/bottom/cli.cpp **** 
 340:xiagb/bottom/cli.cpp ****                     /* If xReturn is pdFALSE, then no further strings will be returned
 341:xiagb/bottom/cli.cpp ****             after this one, and	pxCommand can be reset to NULL ready to search
 342:xiagb/bottom/cli.cpp ****             for the next entered command. */
 343:xiagb/bottom/cli.cpp ****                     if (xReturn == pdFALSE)
 344:xiagb/bottom/cli.cpp ****                     {
 345:xiagb/bottom/cli.cpp ****                         pxCommand = NULL;
 346:xiagb/bottom/cli.cpp ****                     }
 347:xiagb/bottom/cli.cpp ****                 }
 348:xiagb/bottom/cli.cpp ****                 else
 349:xiagb/bottom/cli.cpp ****                 {
 350:xiagb/bottom/cli.cpp ****                     /* Êâæ‰∏çÂà∞ÂëΩ‰ª§ */
 351:xiagb/bottom/cli.cpp ****                     strncpy(pcWriteBuffer, "Command not recognised.  Enter 'help' to view a list of
 352:xiagb/bottom/cli.cpp ****                     xReturn = pdFALSE;
 353:xiagb/bottom/cli.cpp ****                 }
 354:xiagb/bottom/cli.cpp **** 
 355:xiagb/bottom/cli.cpp ****                 return xReturn;
 356:xiagb/bottom/cli.cpp ****             }
 357:xiagb/bottom/cli.cpp **** 
 358:xiagb/bottom/cli.cpp ****             //‰ªéËæìÂÖ•Ëé∑ÂèñÁõ∏Â∫îÂ∫èÂè∑ÁöÑÂ≠óÁ¨¶‰∏≤Ôºå‰πüÂ∞±ÊòØÂèÇÊï∞Â≠óÁ¨¶‰∏≤
 359:xiagb/bottom/cli.cpp ****             const char *FreeRTOS_CLIGetParameter(const char *pcCommandString, UBaseType_t uxWantedP
 360:xiagb/bottom/cli.cpp ****             {
 361:xiagb/bottom/cli.cpp ****                 UBaseType_t uxParametersFound = 0;
 362:xiagb/bottom/cli.cpp ****                 const char *pcReturn = NULL;
 363:xiagb/bottom/cli.cpp **** 
 364:xiagb/bottom/cli.cpp ****                 *pxParameterStringLength = 0;
 365:xiagb/bottom/cli.cpp **** 
 366:xiagb/bottom/cli.cpp ****                 while (uxParametersFound < uxWantedParameter)
 367:xiagb/bottom/cli.cpp ****                 {
 368:xiagb/bottom/cli.cpp ****                     /* Â∞ÜÊåáÈíàÂÆö‰ΩçÂà∞ËØ•ÂçïËØçÁªìÊùü */
 369:xiagb/bottom/cli.cpp ****                     while (((*pcCommandString) != 0x00) && ((*pcCommandString) != ' '))
 370:xiagb/bottom/cli.cpp ****                     {
 371:xiagb/bottom/cli.cpp ****                         pcCommandString++;
 372:xiagb/bottom/cli.cpp ****                     }
ARM GAS  C:\Users\XieFang\AppData\Local\Temp\ccBi1CPH.s 			page 8


 373:xiagb/bottom/cli.cpp **** 
 374:xiagb/bottom/cli.cpp ****                     /* Â∞ÜÊåáÈíàÂÆö‰ΩçÂà∞‰∏ã‰∏Ä‰∏™ÂçïËØçÁöÑÂºÄÂßã */
 375:xiagb/bottom/cli.cpp ****                     while (((*pcCommandString) != 0x00) && ((*pcCommandString) == ' '))
 376:xiagb/bottom/cli.cpp ****                     {
 377:xiagb/bottom/cli.cpp ****                         pcCommandString++;
 378:xiagb/bottom/cli.cpp ****                     }
 379:xiagb/bottom/cli.cpp ****                     //Á¨¨‰∏ÄÊ¨°‰ºöÊé†ËøáÁ¨¨‰∏Ä‰∏™ÂçïËØç‰πüÂ∞±ÊòØÂëΩ‰ª§ÔºåÂπ∂‰ªé‰∏ã‰∏Ä‰∏™ÂçïËØçÂºÄÂß
 380:xiagb/bottom/cli.cpp **** 
 381:xiagb/bottom/cli.cpp ****                     /* Was a string found? */
 382:xiagb/bottom/cli.cpp ****                     if (*pcCommandString != 0x00)
 383:xiagb/bottom/cli.cpp ****                     {
 384:xiagb/bottom/cli.cpp ****                         /* Is this the start of the required parameter? */
 385:xiagb/bottom/cli.cpp ****                         uxParametersFound++;
 386:xiagb/bottom/cli.cpp **** 
 387:xiagb/bottom/cli.cpp ****                         //ÂΩìÂâçÂà∞ÁöÑÂçïËØçÁöÑÂ∫èÂè∑ÊòØ‰∏çÊòØÊÉ≥Ë¶ÅÁöÑÈÇ£‰∏™Â∫èÂè∑Ôºü
 388:xiagb/bottom/cli.cpp ****                         if (uxParametersFound == uxWantedParameter)
 389:xiagb/bottom/cli.cpp ****                         {
 390:xiagb/bottom/cli.cpp ****                             /* ËØ•ÂçïËØçÁöÑÂºÄÂßãÁöÑ‰ΩçÁΩÆ */
 391:xiagb/bottom/cli.cpp ****                             pcReturn = pcCommandString;
 392:xiagb/bottom/cli.cpp ****                             while (((*pcCommandString) != 0x00) && ((*pcCommandString) != ' '))
 393:xiagb/bottom/cli.cpp ****                             {
 394:xiagb/bottom/cli.cpp ****                                 (*pxParameterStringLength)++; //ËÆ°ÁÆóËØ•ÂçïËØçÁöÑÈïøÂ∫¶
 395:xiagb/bottom/cli.cpp ****                                 pcCommandString++;            //‰∏ã‰∏Ä‰∏™Â≠óÁ¨¶
 396:xiagb/bottom/cli.cpp ****                             }
 397:xiagb/bottom/cli.cpp **** 
 398:xiagb/bottom/cli.cpp ****                             if (*pxParameterStringLength == 0) //ÁªìÊùü‰∫Ü
 399:xiagb/bottom/cli.cpp ****                             {
 400:xiagb/bottom/cli.cpp ****                                 pcReturn = NULL;
 401:xiagb/bottom/cli.cpp ****                             }
 402:xiagb/bottom/cli.cpp **** 
 403:xiagb/bottom/cli.cpp ****                             break;
 404:xiagb/bottom/cli.cpp ****                         }
 405:xiagb/bottom/cli.cpp ****                     }
 406:xiagb/bottom/cli.cpp ****                     else
 407:xiagb/bottom/cli.cpp ****                     {
 408:xiagb/bottom/cli.cpp ****                         break;
 409:xiagb/bottom/cli.cpp ****                     }
 410:xiagb/bottom/cli.cpp ****                 }
 411:xiagb/bottom/cli.cpp **** 
 412:xiagb/bottom/cli.cpp ****                 return pcReturn;
 413:xiagb/bottom/cli.cpp ****             }
 414:xiagb/bottom/cli.cpp **** 
 415:xiagb/bottom/cli.cpp ****             //Ëé∑ÂèñÂèÇÊï∞Êï∞Èáè
 416:xiagb/bottom/cli.cpp ****             int8_t prvGetNumberOfParameters(const char *pcCommandString)
 417:xiagb/bottom/cli.cpp ****             {
 418:xiagb/bottom/cli.cpp ****                 int8_t cParameters = 0;
 419:xiagb/bottom/cli.cpp ****                 BaseType_t xLastCharacterWasSpace = pdFALSE;
 420:xiagb/bottom/cli.cpp **** 
 421:xiagb/bottom/cli.cpp ****                 /* Count the number of space delimited words in pcCommandString. */
 422:xiagb/bottom/cli.cpp ****                 while (*pcCommandString != 0x00)
 423:xiagb/bottom/cli.cpp ****                 {
 424:xiagb/bottom/cli.cpp ****                     if ((*pcCommandString) == ' ')
 425:xiagb/bottom/cli.cpp ****                     {
 426:xiagb/bottom/cli.cpp ****                         if (xLastCharacterWasSpace != pdTRUE)
 427:xiagb/bottom/cli.cpp ****                         {
 428:xiagb/bottom/cli.cpp ****                             cParameters++;
 429:xiagb/bottom/cli.cpp ****                             xLastCharacterWasSpace = pdTRUE;
ARM GAS  C:\Users\XieFang\AppData\Local\Temp\ccBi1CPH.s 			page 9


 430:xiagb/bottom/cli.cpp ****                         }
 431:xiagb/bottom/cli.cpp ****                     }
 432:xiagb/bottom/cli.cpp ****                     else
 433:xiagb/bottom/cli.cpp ****                     {
 434:xiagb/bottom/cli.cpp ****                         xLastCharacterWasSpace = pdFALSE;
 435:xiagb/bottom/cli.cpp ****                     }
 436:xiagb/bottom/cli.cpp **** 
 437:xiagb/bottom/cli.cpp ****                     pcCommandString++;
 438:xiagb/bottom/cli.cpp ****                 }
 439:xiagb/bottom/cli.cpp **** 
 440:xiagb/bottom/cli.cpp ****                 /* If the command string ended with spaces, then there will have been too
 441:xiagb/bottom/cli.cpp ****         many parameters counted. */
 442:xiagb/bottom/cli.cpp ****                 if (xLastCharacterWasSpace == pdTRUE)
 443:xiagb/bottom/cli.cpp ****                 {
 444:xiagb/bottom/cli.cpp ****                     cParameters--;
 445:xiagb/bottom/cli.cpp ****                 }
 446:xiagb/bottom/cli.cpp **** 
 447:xiagb/bottom/cli.cpp ****                 /* The value returned is one less than the number of space delimited words,
 448:xiagb/bottom/cli.cpp ****         as the first word should be the command itself. */
 449:xiagb/bottom/cli.cpp ****                 return cParameters;
 450:xiagb/bottom/cli.cpp ****             }
 451:xiagb/bottom/cli.cpp **** 
 452:xiagb/bottom/cli.cpp ****             //Â§öÊ¨°
 453:xiagb/bottom/cli.cpp ****             bool prvHelpCommand(char *pcWriteBuffer, size_t xWriteBufferLen, const char *pcCommandS
 454:xiagb/bottom/cli.cpp ****             {
  29              		.loc 1 454 13 view -0
  30              		.cfi_startproc
  31              		@ args = 0, pretend = 0, frame = 0
  32              		@ frame_needed = 0, uses_anonymous_args = 0
  33              		.loc 1 454 13 is_stmt 0 view .LVU1
  34 0000 38B5     		push	{r3, r4, r5, lr}
  35              	.LCFI0:
  36              		.cfi_def_cfa_offset 16
  37              		.cfi_offset 3, -16
  38              		.cfi_offset 4, -12
  39              		.cfi_offset 5, -8
  40              		.cfi_offset 14, -4
  41 0002 0A46     		mov	r2, r1
  42              	.LVL1:
 455:xiagb/bottom/cli.cpp ****                 static const cmd_list *pxCommand = NULL; //ÊØèÊâßË°å‰∏ÄÊ¨°Â∞±ÊåáÂêë‰∏ã‰∏Ä‰∏™„ÄÇÂèØÊ
  43              		.loc 1 455 17 is_stmt 1 view .LVU2
 456:xiagb/bottom/cli.cpp ****                 bool xReturn;
  44              		.loc 1 456 17 view .LVU3
 457:xiagb/bottom/cli.cpp **** 
 458:xiagb/bottom/cli.cpp ****                 (void)pcCommandString;
  45              		.loc 1 458 17 view .LVU4
 459:xiagb/bottom/cli.cpp **** 
 460:xiagb/bottom/cli.cpp ****                 if (pxCommand == NULL)
  46              		.loc 1 460 17 view .LVU5
  47              		.loc 1 460 31 is_stmt 0 view .LVU6
  48 0004 094B     		ldr	r3, .L8
  49 0006 1B68     		ldr	r3, [r3]
  50              		.loc 1 460 17 view .LVU7
  51 0008 53B1     		cbz	r3, .L6
  52              	.LVL2:
  53              	.L2:
 461:xiagb/bottom/cli.cpp ****                 {
ARM GAS  C:\Users\XieFang\AppData\Local\Temp\ccBi1CPH.s 			page 10


 462:xiagb/bottom/cli.cpp ****                     /* Reset the pxCommand pointer back to the start of the list. */
 463:xiagb/bottom/cli.cpp ****                     pxCommand = &xRegisteredCommands;
 464:xiagb/bottom/cli.cpp ****                 }
 465:xiagb/bottom/cli.cpp **** 
 466:xiagb/bottom/cli.cpp ****                 /* Return the next command help string, before moving the pointer on to
 467:xiagb/bottom/cli.cpp ****         the next command in the list. */
 468:xiagb/bottom/cli.cpp ****                 strncpy(pcWriteBuffer, pxCommand->pxCommandLineDefinition->pcHelpString, xWriteBuff
  54              		.loc 1 468 17 is_stmt 1 view .LVU8
  55              		.loc 1 468 51 is_stmt 0 view .LVU9
  56 000a 084C     		ldr	r4, .L8
  57 000c 2568     		ldr	r5, [r4]
  58 000e 2B68     		ldr	r3, [r5]
  59              		.loc 1 468 24 view .LVU10
  60 0010 5968     		ldr	r1, [r3, #4]
  61 0012 FFF7FEFF 		bl	strncpy
  62              	.LVL3:
 469:xiagb/bottom/cli.cpp ****                 pxCommand = pxCommand->pxNext;
  63              		.loc 1 469 17 is_stmt 1 view .LVU11
  64              		.loc 1 469 40 is_stmt 0 view .LVU12
  65 0016 6B68     		ldr	r3, [r5, #4]
  66              		.loc 1 469 27 view .LVU13
  67 0018 2360     		str	r3, [r4]
 470:xiagb/bottom/cli.cpp **** 
 471:xiagb/bottom/cli.cpp ****                 if (pxCommand == NULL)
  68              		.loc 1 471 17 is_stmt 1 view .LVU14
  69 001a 2BB1     		cbz	r3, .L7
 472:xiagb/bottom/cli.cpp ****                 {
 473:xiagb/bottom/cli.cpp ****                     /* There are no more commands in the list, so there will be no more
 474:xiagb/bottom/cli.cpp ****             strings to return after this one and pdFALSE should be returned. */
 475:xiagb/bottom/cli.cpp ****                     xReturn = pdFALSE;
 476:xiagb/bottom/cli.cpp ****                 }
 477:xiagb/bottom/cli.cpp ****                 else
 478:xiagb/bottom/cli.cpp ****                 {
 479:xiagb/bottom/cli.cpp ****                     xReturn = pdTRUE;
  70              		.loc 1 479 29 is_stmt 0 view .LVU15
  71 001c 0120     		movs	r0, #1
  72              	.L3:
  73              	.LVL4:
 480:xiagb/bottom/cli.cpp ****                 }
 481:xiagb/bottom/cli.cpp **** 
 482:xiagb/bottom/cli.cpp ****                 return xReturn;
  74              		.loc 1 482 17 is_stmt 1 view .LVU16
 483:xiagb/bottom/cli.cpp ****             }
  75              		.loc 1 483 13 is_stmt 0 view .LVU17
  76 001e 38BD     		pop	{r3, r4, r5, pc}
  77              	.LVL5:
  78              	.L6:
 463:xiagb/bottom/cli.cpp ****                 }
  79              		.loc 1 463 21 is_stmt 1 view .LVU18
 463:xiagb/bottom/cli.cpp ****                 }
  80              		.loc 1 463 31 is_stmt 0 view .LVU19
  81 0020 024B     		ldr	r3, .L8
  82 0022 0349     		ldr	r1, .L8+4
  83              	.LVL6:
 463:xiagb/bottom/cli.cpp ****                 }
  84              		.loc 1 463 31 view .LVU20
  85 0024 1960     		str	r1, [r3]
ARM GAS  C:\Users\XieFang\AppData\Local\Temp\ccBi1CPH.s 			page 11


  86 0026 F0E7     		b	.L2
  87              	.LVL7:
  88              	.L7:
 475:xiagb/bottom/cli.cpp ****                 }
  89              		.loc 1 475 29 view .LVU21
  90 0028 0020     		movs	r0, #0
  91 002a F8E7     		b	.L3
  92              	.L9:
  93              		.align	2
  94              	.L8:
  95 002c 00000000 		.word	.LANCHOR0
  96 0030 00000000 		.word	.LANCHOR1
  97              		.cfi_endproc
  98              	.LFE314:
  99              		.cantunwind
 100              		.fnend
 102              		.section	.text._ZN5xiagb15parserNamespace12cliNamespace8cliClassC2Ev,"ax",%progbits
 103              		.align	1
 104              		.global	_ZN5xiagb15parserNamespace12cliNamespace8cliClassC2Ev
 105              		.syntax unified
 106              		.thumb
 107              		.thumb_func
 108              		.fpu softvfp
 110              	_ZN5xiagb15parserNamespace12cliNamespace8cliClassC2Ev:
 111              		.fnstart
 112              	.LVL8:
 113              	.LFB297:
  78:xiagb/bottom/cli.cpp ****             {
 114              		.loc 1 78 13 is_stmt 1 view -0
 115              		.cfi_startproc
 116              		@ args = 0, pretend = 0, frame = 0
 117              		@ frame_needed = 0, uses_anonymous_args = 0
 118              		@ link register save eliminated.
 119              	.LBB19:
  78:xiagb/bottom/cli.cpp ****             {
 120              		.loc 1 78 32 is_stmt 0 view .LVU23
 121 0000 4FF47A72 		mov	r2, #1000
 122 0004 0280     		strh	r2, [r0]	@ movhi
 123 0006 6422     		movs	r2, #100
 124 0008 4280     		strh	r2, [r0, #2]	@ movhi
 125 000a 4FF4FA72 		mov	r2, #500
 126 000e 8280     		strh	r2, [r0, #4]	@ movhi
 127 0010 0122     		movs	r2, #1
 128 0012 80F82020 		strb	r2, [r0, #32]
 129              	.LBE19:
  80:xiagb/bottom/cli.cpp **** 
 130              		.loc 1 80 13 view .LVU24
 131 0016 7047     		bx	lr
 132              		.cfi_endproc
 133              	.LFE297:
 134              		.cantunwind
 135              		.fnend
 137              		.global	_ZN5xiagb15parserNamespace12cliNamespace8cliClassC1Ev
 138              		.thumb_set _ZN5xiagb15parserNamespace12cliNamespace8cliClassC1Ev,_ZN5xiagb15parserNamespace12cliNa
 139              		.section	.text._ZN5xiagb15parserNamespace12cliNamespace8cliClassD2Ev,"ax",%progbits
 140              		.align	1
 141              		.global	_ZN5xiagb15parserNamespace12cliNamespace8cliClassD2Ev
ARM GAS  C:\Users\XieFang\AppData\Local\Temp\ccBi1CPH.s 			page 12


 142              		.syntax unified
 143              		.thumb
 144              		.thumb_func
 145              		.fpu softvfp
 147              	_ZN5xiagb15parserNamespace12cliNamespace8cliClassD2Ev:
 148              		.fnstart
 149              	.LVL9:
 150              	.LFB300:
  82:xiagb/bottom/cli.cpp ****             {
 151              		.loc 1 82 13 is_stmt 1 view -0
 152              		.cfi_startproc
 153              		@ args = 0, pretend = 0, frame = 0
 154              		@ frame_needed = 0, uses_anonymous_args = 0
 155              		@ link register save eliminated.
  84:xiagb/bottom/cli.cpp **** 
 156              		.loc 1 84 13 is_stmt 0 view .LVU26
 157 0000 7047     		bx	lr
 158              		.cfi_endproc
 159              	.LFE300:
 160              		.cantunwind
 161              		.fnend
 163              		.global	_ZN5xiagb15parserNamespace12cliNamespace8cliClassD1Ev
 164              		.thumb_set _ZN5xiagb15parserNamespace12cliNamespace8cliClassD1Ev,_ZN5xiagb15parserNamespace12cliNa
 165              		.section	.text._ZN5xiagb15parserNamespace12cliNamespace8cliClass10outputCharEh,"ax",%progbits
 166              		.align	1
 167              		.global	_ZN5xiagb15parserNamespace12cliNamespace8cliClass10outputCharEh
 168              		.syntax unified
 169              		.thumb
 170              		.thumb_func
 171              		.fpu softvfp
 173              	_ZN5xiagb15parserNamespace12cliNamespace8cliClass10outputCharEh:
 174              		.fnstart
 175              	.LVL10:
 176              	.LFB303:
 115:xiagb/bottom/cli.cpp ****                 if (uartHandle && feedbackFlag)
 177              		.loc 1 115 13 is_stmt 1 view -0
 178              		.cfi_startproc
 179              		@ args = 0, pretend = 0, frame = 8
 180              		@ frame_needed = 0, uses_anonymous_args = 0
 115:xiagb/bottom/cli.cpp ****                 if (uartHandle && feedbackFlag)
 181              		.loc 1 115 13 is_stmt 0 view .LVU28
 182 0000 00B5     		push	{lr}
 183              		.save {lr}
 184              	.LCFI1:
 185              		.cfi_def_cfa_offset 4
 186              		.cfi_offset 14, -4
 187              		.pad #12
 188 0002 83B0     		sub	sp, sp, #12
 189              	.LCFI2:
 190              		.cfi_def_cfa_offset 16
 191 0004 8DF80710 		strb	r1, [sp, #7]
 116:xiagb/bottom/cli.cpp ****                     uartHandle->send(&data, 1);
 192              		.loc 1 116 17 is_stmt 1 view .LVU29
 116:xiagb/bottom/cli.cpp ****                     uartHandle->send(&data, 1);
 193              		.loc 1 116 21 is_stmt 0 view .LVU30
 194 0008 8368     		ldr	r3, [r0, #8]
 116:xiagb/bottom/cli.cpp ****                     uartHandle->send(&data, 1);
ARM GAS  C:\Users\XieFang\AppData\Local\Temp\ccBi1CPH.s 			page 13


 195              		.loc 1 116 17 view .LVU31
 196 000a 13B1     		cbz	r3, .L12
 116:xiagb/bottom/cli.cpp ****                     uartHandle->send(&data, 1);
 197              		.loc 1 116 35 discriminator 1 view .LVU32
 198 000c 90F82020 		ldrb	r2, [r0, #32]	@ zero_extendqisi2
 116:xiagb/bottom/cli.cpp ****                     uartHandle->send(&data, 1);
 199              		.loc 1 116 32 discriminator 1 view .LVU33
 200 0010 12B9     		cbnz	r2, .L15
 201              	.LVL11:
 202              	.L12:
 118:xiagb/bottom/cli.cpp **** 
 203              		.loc 1 118 13 view .LVU34
 204 0012 03B0     		add	sp, sp, #12
 205              	.LCFI3:
 206              		.cfi_remember_state
 207              		.cfi_def_cfa_offset 4
 208              		@ sp needed
 209 0014 5DF804FB 		ldr	pc, [sp], #4
 210              	.LVL12:
 211              	.L15:
 212              	.LCFI4:
 213              		.cfi_restore_state
 117:xiagb/bottom/cli.cpp ****             }
 214              		.loc 1 117 21 is_stmt 1 view .LVU35
 117:xiagb/bottom/cli.cpp ****             }
 215              		.loc 1 117 37 is_stmt 0 view .LVU36
 216 0018 0122     		movs	r2, #1
 217 001a 0DF10701 		add	r1, sp, #7
 218              	.LVL13:
 117:xiagb/bottom/cli.cpp ****             }
 219              		.loc 1 117 37 view .LVU37
 220 001e 1846     		mov	r0, r3
 221              	.LVL14:
 117:xiagb/bottom/cli.cpp ****             }
 222              		.loc 1 117 37 view .LVU38
 223 0020 FFF7FEFF 		bl	_ZN5xiagb22communicationNamespace13uartNamespace9uartClass4sendEPht
 224              	.LVL15:
 118:xiagb/bottom/cli.cpp **** 
 225              		.loc 1 118 13 view .LVU39
 226 0024 F5E7     		b	.L12
 227              		.cfi_endproc
 228              	.LFE303:
 229              		.fnend
 231              		.section	.text._ZN5xiagb15parserNamespace12cliNamespace8cliClass9outputStrEPh,"ax",%progbits
 232              		.align	1
 233              		.global	_ZN5xiagb15parserNamespace12cliNamespace8cliClass9outputStrEPh
 234              		.syntax unified
 235              		.thumb
 236              		.thumb_func
 237              		.fpu softvfp
 239              	_ZN5xiagb15parserNamespace12cliNamespace8cliClass9outputStrEPh:
 240              		.fnstart
 241              	.LVL16:
 242              	.LFB304:
 121:xiagb/bottom/cli.cpp ****                 // while (*data)
 243              		.loc 1 121 13 is_stmt 1 view -0
 244              		.cfi_startproc
ARM GAS  C:\Users\XieFang\AppData\Local\Temp\ccBi1CPH.s 			page 14


 245              		@ args = 0, pretend = 0, frame = 0
 246              		@ frame_needed = 0, uses_anonymous_args = 0
 121:xiagb/bottom/cli.cpp ****                 // while (*data)
 247              		.loc 1 121 13 is_stmt 0 view .LVU41
 248 0000 38B5     		push	{r3, r4, r5, lr}
 249              		.save {r3, r4, r5, lr}
 250              	.LCFI5:
 251              		.cfi_def_cfa_offset 16
 252              		.cfi_offset 3, -16
 253              		.cfi_offset 4, -12
 254              		.cfi_offset 5, -8
 255              		.cfi_offset 14, -4
 127:xiagb/bottom/cli.cpp ****                     uartHandle->send(data, strlen((const char *)data));
 256              		.loc 1 127 17 is_stmt 1 view .LVU42
 127:xiagb/bottom/cli.cpp ****                     uartHandle->send(data, strlen((const char *)data));
 257              		.loc 1 127 21 is_stmt 0 view .LVU43
 258 0002 8568     		ldr	r5, [r0, #8]
 127:xiagb/bottom/cli.cpp ****                     uartHandle->send(data, strlen((const char *)data));
 259              		.loc 1 127 17 view .LVU44
 260 0004 1DB1     		cbz	r5, .L16
 261 0006 0C46     		mov	r4, r1
 127:xiagb/bottom/cli.cpp ****                     uartHandle->send(data, strlen((const char *)data));
 262              		.loc 1 127 35 discriminator 1 view .LVU45
 263 0008 90F82030 		ldrb	r3, [r0, #32]	@ zero_extendqisi2
 127:xiagb/bottom/cli.cpp ****                     uartHandle->send(data, strlen((const char *)data));
 264              		.loc 1 127 32 discriminator 1 view .LVU46
 265 000c 03B9     		cbnz	r3, .L19
 266              	.LVL17:
 267              	.L16:
 129:xiagb/bottom/cli.cpp **** 
 268              		.loc 1 129 13 view .LVU47
 269 000e 38BD     		pop	{r3, r4, r5, pc}
 270              	.LVL18:
 271              	.L19:
 128:xiagb/bottom/cli.cpp ****             }
 272              		.loc 1 128 21 is_stmt 1 view .LVU48
 128:xiagb/bottom/cli.cpp ****             }
 273              		.loc 1 128 50 is_stmt 0 view .LVU49
 274 0010 0846     		mov	r0, r1
 275              	.LVL19:
 128:xiagb/bottom/cli.cpp ****             }
 276              		.loc 1 128 50 view .LVU50
 277 0012 FFF7FEFF 		bl	strlen
 278              	.LVL20:
 128:xiagb/bottom/cli.cpp ****             }
 279              		.loc 1 128 37 view .LVU51
 280 0016 82B2     		uxth	r2, r0
 281 0018 2146     		mov	r1, r4
 282 001a 2846     		mov	r0, r5
 283 001c FFF7FEFF 		bl	_ZN5xiagb22communicationNamespace13uartNamespace9uartClass4sendEPht
 284              	.LVL21:
 129:xiagb/bottom/cli.cpp **** 
 285              		.loc 1 129 13 view .LVU52
 286 0020 F5E7     		b	.L16
 287              		.cfi_endproc
 288              	.LFE304:
 289              		.fnend
ARM GAS  C:\Users\XieFang\AppData\Local\Temp\ccBi1CPH.s 			page 15


 291              		.section	.text._ZN5xiagb15parserNamespace12cliNamespace8cliClass7getCharEPh,"ax",%progbits
 292              		.align	1
 293              		.global	_ZN5xiagb15parserNamespace12cliNamespace8cliClass7getCharEPh
 294              		.syntax unified
 295              		.thumb
 296              		.thumb_func
 297              		.fpu softvfp
 299              	_ZN5xiagb15parserNamespace12cliNamespace8cliClass7getCharEPh:
 300              		.fnstart
 301              	.LVL22:
 302              	.LFB305:
 131:xiagb/bottom/cli.cpp ****             void cliClass::setChar(uint8_t *data) { osMessageQueuePut(rxQueue, data, 0, osWaitForev
 303              		.loc 1 131 63 is_stmt 1 view -0
 304              		.cfi_startproc
 305              		@ args = 0, pretend = 0, frame = 0
 306              		@ frame_needed = 0, uses_anonymous_args = 0
 131:xiagb/bottom/cli.cpp ****             void cliClass::setChar(uint8_t *data) { osMessageQueuePut(rxQueue, data, 0, osWaitForev
 307              		.loc 1 131 63 is_stmt 0 view .LVU54
 308 0000 08B5     		push	{r3, lr}
 309              		.save {r3, lr}
 310              	.LCFI6:
 311              		.cfi_def_cfa_offset 8
 312              		.cfi_offset 3, -8
 313              		.cfi_offset 14, -4
 131:xiagb/bottom/cli.cpp ****             void cliClass::setChar(uint8_t *data) { osMessageQueuePut(rxQueue, data, 0, osWaitForev
 314              		.loc 1 131 65 is_stmt 1 view .LVU55
 131:xiagb/bottom/cli.cpp ****             void cliClass::setChar(uint8_t *data) { osMessageQueuePut(rxQueue, data, 0, osWaitForev
 315              		.loc 1 131 89 is_stmt 0 view .LVU56
 316 0002 0023     		movs	r3, #0
 317 0004 1A46     		mov	r2, r3
 318 0006 C068     		ldr	r0, [r0, #12]
 319              	.LVL23:
 131:xiagb/bottom/cli.cpp ****             void cliClass::setChar(uint8_t *data) { osMessageQueuePut(rxQueue, data, 0, osWaitForev
 320              		.loc 1 131 89 view .LVU57
 321 0008 FFF7FEFF 		bl	osMessageQueueGet
 322              	.LVL24:
 131:xiagb/bottom/cli.cpp ****             void cliClass::setChar(uint8_t *data) { osMessageQueuePut(rxQueue, data, 0, osWaitForev
 323              		.loc 1 131 124 view .LVU58
 324 000c 08BD     		pop	{r3, pc}
 325              		.cfi_endproc
 326              	.LFE305:
 327              		.fnend
 329              		.section	.text._ZN5xiagb15parserNamespace12cliNamespace8cliClass7setCharEPh,"ax",%progbits
 330              		.align	1
 331              		.global	_ZN5xiagb15parserNamespace12cliNamespace8cliClass7setCharEPh
 332              		.syntax unified
 333              		.thumb
 334              		.thumb_func
 335              		.fpu softvfp
 337              	_ZN5xiagb15parserNamespace12cliNamespace8cliClass7setCharEPh:
 338              		.fnstart
 339              	.LVL25:
 340              	.LFB306:
 132:xiagb/bottom/cli.cpp ****             void cliClass::setEchoQueue(osMessageQueueId_t argQueueI32)
 341              		.loc 1 132 51 is_stmt 1 view -0
 342              		.cfi_startproc
 343              		@ args = 0, pretend = 0, frame = 0
ARM GAS  C:\Users\XieFang\AppData\Local\Temp\ccBi1CPH.s 			page 16


 344              		@ frame_needed = 0, uses_anonymous_args = 0
 132:xiagb/bottom/cli.cpp ****             void cliClass::setEchoQueue(osMessageQueueId_t argQueueI32)
 345              		.loc 1 132 51 is_stmt 0 view .LVU60
 346 0000 08B5     		push	{r3, lr}
 347              		.save {r3, lr}
 348              	.LCFI7:
 349              		.cfi_def_cfa_offset 8
 350              		.cfi_offset 3, -8
 351              		.cfi_offset 14, -4
 132:xiagb/bottom/cli.cpp ****             void cliClass::setEchoQueue(osMessageQueueId_t argQueueI32)
 352              		.loc 1 132 53 is_stmt 1 view .LVU61
 132:xiagb/bottom/cli.cpp ****             void cliClass::setEchoQueue(osMessageQueueId_t argQueueI32)
 353              		.loc 1 132 70 is_stmt 0 view .LVU62
 354 0002 4FF0FF33 		mov	r3, #-1
 355 0006 0022     		movs	r2, #0
 356 0008 C068     		ldr	r0, [r0, #12]
 357              	.LVL26:
 132:xiagb/bottom/cli.cpp ****             void cliClass::setEchoQueue(osMessageQueueId_t argQueueI32)
 358              		.loc 1 132 70 view .LVU63
 359 000a FFF7FEFF 		bl	osMessageQueuePut
 360              	.LVL27:
 132:xiagb/bottom/cli.cpp ****             void cliClass::setEchoQueue(osMessageQueueId_t argQueueI32)
 361              		.loc 1 132 105 view .LVU64
 362 000e 08BD     		pop	{r3, pc}
 363              		.cfi_endproc
 364              	.LFE306:
 365              		.fnend
 367              		.section	.text._ZN5xiagb15parserNamespace12cliNamespace8cliClass12setEchoQueueEPv,"ax",%progbits
 368              		.align	1
 369              		.global	_ZN5xiagb15parserNamespace12cliNamespace8cliClass12setEchoQueueEPv
 370              		.syntax unified
 371              		.thumb
 372              		.thumb_func
 373              		.fpu softvfp
 375              	_ZN5xiagb15parserNamespace12cliNamespace8cliClass12setEchoQueueEPv:
 376              		.fnstart
 377              	.LVL28:
 378              	.LFB307:
 134:xiagb/bottom/cli.cpp ****                 echoDataQueue = argQueueI32;
 379              		.loc 1 134 13 is_stmt 1 view -0
 380              		.cfi_startproc
 381              		@ args = 0, pretend = 0, frame = 0
 382              		@ frame_needed = 0, uses_anonymous_args = 0
 383              		@ link register save eliminated.
 135:xiagb/bottom/cli.cpp ****             }
 384              		.loc 1 135 17 view .LVU66
 135:xiagb/bottom/cli.cpp ****             }
 385              		.loc 1 135 31 is_stmt 0 view .LVU67
 386 0000 014B     		ldr	r3, .L25
 387 0002 1960     		str	r1, [r3]
 136:xiagb/bottom/cli.cpp **** 
 388              		.loc 1 136 13 view .LVU68
 389 0004 7047     		bx	lr
 390              	.L26:
 391 0006 00BF     		.align	2
 392              	.L25:
 393 0008 00000000 		.word	.LANCHOR2
ARM GAS  C:\Users\XieFang\AppData\Local\Temp\ccBi1CPH.s 			page 17


 394              		.cfi_endproc
 395              	.LFE307:
 396              		.cantunwind
 397              		.fnend
 399              		.section	.text._ZN5xiagb15parserNamespace12cliNamespace8cliClass15receiveQueueStrEPv,"ax",%progbit
 400              		.align	1
 401              		.global	_ZN5xiagb15parserNamespace12cliNamespace8cliClass15receiveQueueStrEPv
 402              		.syntax unified
 403              		.thumb
 404              		.thumb_func
 405              		.fpu softvfp
 407              	_ZN5xiagb15parserNamespace12cliNamespace8cliClass15receiveQueueStrEPv:
 408              		.fnstart
 409              	.LVL29:
 410              	.LFB308:
 149:xiagb/bottom/cli.cpp ****                 uint8_t buffer;
 411              		.loc 1 149 13 is_stmt 1 view -0
 412              		.cfi_startproc
 413              		@ args = 0, pretend = 0, frame = 8
 414              		@ frame_needed = 0, uses_anonymous_args = 0
 149:xiagb/bottom/cli.cpp ****                 uint8_t buffer;
 415              		.loc 1 149 13 is_stmt 0 view .LVU70
 416 0000 30B5     		push	{r4, r5, lr}
 417              		.save {r4, r5, lr}
 418              	.LCFI8:
 419              		.cfi_def_cfa_offset 12
 420              		.cfi_offset 4, -12
 421              		.cfi_offset 5, -8
 422              		.cfi_offset 14, -4
 423              		.pad #12
 424 0002 83B0     		sub	sp, sp, #12
 425              	.LCFI9:
 426              		.cfi_def_cfa_offset 24
 427 0004 0546     		mov	r5, r0
 428 0006 0C46     		mov	r4, r1
 429              	.LVL30:
 430              	.L29:
 150:xiagb/bottom/cli.cpp ****                 while (osMessageQueueGet(queue, &buffer, nullptr, 0) == osOK) //Êï∞ÊçÆÈÉΩÊòØÊèêÂâçÂ
 431              		.loc 1 150 17 is_stmt 1 view .LVU71
 151:xiagb/bottom/cli.cpp ****                 {
 432              		.loc 1 151 17 view .LVU72
 151:xiagb/bottom/cli.cpp ****                 {
 433              		.loc 1 151 70 view .LVU73
 151:xiagb/bottom/cli.cpp ****                 {
 434              		.loc 1 151 41 is_stmt 0 view .LVU74
 435 0008 0023     		movs	r3, #0
 436 000a 1A46     		mov	r2, r3
 437 000c 0DF10701 		add	r1, sp, #7
 438 0010 2046     		mov	r0, r4
 439 0012 FFF7FEFF 		bl	osMessageQueueGet
 440              	.LVL31:
 151:xiagb/bottom/cli.cpp ****                 {
 441              		.loc 1 151 70 view .LVU75
 442 0016 28B9     		cbnz	r0, .L27
 153:xiagb/bottom/cli.cpp ****                 }
 443              		.loc 1 153 21 is_stmt 1 view .LVU76
 153:xiagb/bottom/cli.cpp ****                 }
ARM GAS  C:\Users\XieFang\AppData\Local\Temp\ccBi1CPH.s 			page 18


 444              		.loc 1 153 28 is_stmt 0 view .LVU77
 445 0018 0DF10701 		add	r1, sp, #7
 446 001c 2846     		mov	r0, r5
 447 001e FFF7FEFF 		bl	_ZN5xiagb15parserNamespace12cliNamespace8cliClass7setCharEPh
 448              	.LVL32:
 449 0022 F1E7     		b	.L29
 450              	.L27:
 155:xiagb/bottom/cli.cpp **** 
 451              		.loc 1 155 13 view .LVU78
 452 0024 03B0     		add	sp, sp, #12
 453              	.LCFI10:
 454              		.cfi_def_cfa_offset 12
 455              		@ sp needed
 456 0026 30BD     		pop	{r4, r5, pc}
 155:xiagb/bottom/cli.cpp **** 
 457              		.loc 1 155 13 view .LVU79
 458              		.cfi_endproc
 459              	.LFE308:
 460              		.fnend
 462              		.section	.text._ZN5xiagb15parserNamespace12cliNamespace27FreeRTOS_CLIRegisterCommandEPKNS1_3cmdE,"
 463              		.align	1
 464              		.global	_ZN5xiagb15parserNamespace12cliNamespace27FreeRTOS_CLIRegisterCommandEPKNS1_3cmdE
 465              		.syntax unified
 466              		.thumb
 467              		.thumb_func
 468              		.fpu softvfp
 470              	_ZN5xiagb15parserNamespace12cliNamespace27FreeRTOS_CLIRegisterCommandEPKNS1_3cmdE:
 471              		.fnstart
 472              	.LVL33:
 473              	.LFB310:
 242:xiagb/bottom/cli.cpp ****                 static cmd_list *pxLastCommandInList = &xRegisteredCommands; //ÊØèËøêË°å‰∏ÄÊ¨°Ôºåpx
 474              		.loc 1 242 13 is_stmt 1 view -0
 475              		.cfi_startproc
 476              		@ args = 0, pretend = 0, frame = 0
 477              		@ frame_needed = 0, uses_anonymous_args = 0
 242:xiagb/bottom/cli.cpp ****                 static cmd_list *pxLastCommandInList = &xRegisteredCommands; //ÊØèËøêË°å‰∏ÄÊ¨°Ôºåpx
 478              		.loc 1 242 13 is_stmt 0 view .LVU81
 479 0000 38B5     		push	{r3, r4, r5, lr}
 480              		.save {r3, r4, r5, lr}
 481              	.LCFI11:
 482              		.cfi_def_cfa_offset 16
 483              		.cfi_offset 3, -16
 484              		.cfi_offset 4, -12
 485              		.cfi_offset 5, -8
 486              		.cfi_offset 14, -4
 243:xiagb/bottom/cli.cpp ****                 bool xReturn = pdFAIL;
 487              		.loc 1 243 17 is_stmt 1 view .LVU82
 244:xiagb/bottom/cli.cpp **** 
 488              		.loc 1 244 17 view .LVU83
 489              	.LVL34:
 247:xiagb/bottom/cli.cpp **** 
 490              		.loc 1 247 17 view .LVU84
 491 0002 90B1     		cbz	r0, .L37
 492 0004 0546     		mov	r5, r0
 247:xiagb/bottom/cli.cpp **** 
 493              		.loc 1 247 50 discriminator 2 view .LVU85
 251:xiagb/bottom/cli.cpp ****                 configASSERT(pxNewListItem);
ARM GAS  C:\Users\XieFang\AppData\Local\Temp\ccBi1CPH.s 			page 19


 494              		.loc 1 251 17 discriminator 2 view .LVU86
 251:xiagb/bottom/cli.cpp ****                 configASSERT(pxNewListItem);
 495              		.loc 1 251 47 is_stmt 0 discriminator 2 view .LVU87
 496 0006 0820     		movs	r0, #8
 497              	.LVL35:
 251:xiagb/bottom/cli.cpp ****                 configASSERT(pxNewListItem);
 498              		.loc 1 251 47 discriminator 2 view .LVU88
 499 0008 FFF7FEFF 		bl	_Znwj
 500              	.LVL36:
 252:xiagb/bottom/cli.cpp **** 
 501              		.loc 1 252 17 is_stmt 1 discriminator 2 view .LVU89
 502 000c 0446     		mov	r4, r0
 503 000e A8B1     		cbz	r0, .L38
 252:xiagb/bottom/cli.cpp **** 
 504              		.loc 1 252 44 view .LVU90
 254:xiagb/bottom/cli.cpp ****                 {
 505              		.loc 1 254 17 view .LVU91
 256:xiagb/bottom/cli.cpp ****                     {
 506              		.loc 1 256 21 view .LVU92
 507 0010 FFF7FEFF 		bl	vPortEnterCritical
 508              	.LVL37:
 257:xiagb/bottom/cli.cpp ****                         /* Reference the command being registered from the newly created
 509              		.loc 1 257 21 view .LVU93
 260:xiagb/bottom/cli.cpp **** 
 510              		.loc 1 260 25 view .LVU94
 260:xiagb/bottom/cli.cpp **** 
 511              		.loc 1 260 64 is_stmt 0 view .LVU95
 512 0014 2560     		str	r5, [r4]
 264:xiagb/bottom/cli.cpp **** 
 513              		.loc 1 264 25 is_stmt 1 view .LVU96
 264:xiagb/bottom/cli.cpp **** 
 514              		.loc 1 264 47 is_stmt 0 view .LVU97
 515 0016 0023     		movs	r3, #0
 516 0018 6360     		str	r3, [r4, #4]
 268:xiagb/bottom/cli.cpp **** 
 517              		.loc 1 268 25 is_stmt 1 view .LVU98
 268:xiagb/bottom/cli.cpp **** 
 518              		.loc 1 268 46 is_stmt 0 view .LVU99
 519 001a 0D4B     		ldr	r3, .L39
 520 001c 1A68     		ldr	r2, [r3]
 268:xiagb/bottom/cli.cpp **** 
 521              		.loc 1 268 53 view .LVU100
 522 001e 5460     		str	r4, [r2, #4]
 271:xiagb/bottom/cli.cpp ****                     }
 523              		.loc 1 271 25 is_stmt 1 view .LVU101
 271:xiagb/bottom/cli.cpp ****                     }
 524              		.loc 1 271 45 is_stmt 0 view .LVU102
 525 0020 1C60     		str	r4, [r3]
 273:xiagb/bottom/cli.cpp **** 
 526              		.loc 1 273 21 is_stmt 1 view .LVU103
 527 0022 FFF7FEFF 		bl	vPortExitCritical
 528              	.LVL38:
 275:xiagb/bottom/cli.cpp ****                 }
 529              		.loc 1 275 21 view .LVU104
 278:xiagb/bottom/cli.cpp ****             }
 530              		.loc 1 278 17 view .LVU105
 279:xiagb/bottom/cli.cpp **** 
ARM GAS  C:\Users\XieFang\AppData\Local\Temp\ccBi1CPH.s 			page 20


 531              		.loc 1 279 13 is_stmt 0 view .LVU106
 532 0026 0120     		movs	r0, #1
 533 0028 38BD     		pop	{r3, r4, r5, pc}
 534              	.LVL39:
 535              	.L37:
 247:xiagb/bottom/cli.cpp **** 
 536              		.loc 1 247 17 is_stmt 1 view .LVU107
 537              	.LBB20:
 538              	.LBI20:
 539              		.file 2 "Middlewares/Third_Party/FreeRTOS/Source/portable/GCC/ARM_CM3/portmacro.h"
   1:Middlewares/Third_Party/FreeRTOS/Source/portable/GCC/ARM_CM3/portmacro.h **** /*
   2:Middlewares/Third_Party/FreeRTOS/Source/portable/GCC/ARM_CM3/portmacro.h ****  * FreeRTOS Kernel V10.0.1
   3:Middlewares/Third_Party/FreeRTOS/Source/portable/GCC/ARM_CM3/portmacro.h ****  * Copyright (C) 2017 Amazon.com, Inc. or its affiliates.  All Rights Reserved.
   4:Middlewares/Third_Party/FreeRTOS/Source/portable/GCC/ARM_CM3/portmacro.h ****  *
   5:Middlewares/Third_Party/FreeRTOS/Source/portable/GCC/ARM_CM3/portmacro.h ****  * Permission is hereby granted, free of charge, to any person obtaining a copy of
   6:Middlewares/Third_Party/FreeRTOS/Source/portable/GCC/ARM_CM3/portmacro.h ****  * this software and associated documentation files (the "Software"), to deal in
   7:Middlewares/Third_Party/FreeRTOS/Source/portable/GCC/ARM_CM3/portmacro.h ****  * the Software without restriction, including without limitation the rights to
   8:Middlewares/Third_Party/FreeRTOS/Source/portable/GCC/ARM_CM3/portmacro.h ****  * use, copy, modify, merge, publish, distribute, sublicense, and/or sell copies of
   9:Middlewares/Third_Party/FreeRTOS/Source/portable/GCC/ARM_CM3/portmacro.h ****  * the Software, and to permit persons to whom the Software is furnished to do so,
  10:Middlewares/Third_Party/FreeRTOS/Source/portable/GCC/ARM_CM3/portmacro.h ****  * subject to the following conditions:
  11:Middlewares/Third_Party/FreeRTOS/Source/portable/GCC/ARM_CM3/portmacro.h ****  *
  12:Middlewares/Third_Party/FreeRTOS/Source/portable/GCC/ARM_CM3/portmacro.h ****  * The above copyright notice and this permission notice shall be included in all
  13:Middlewares/Third_Party/FreeRTOS/Source/portable/GCC/ARM_CM3/portmacro.h ****  * copies or substantial portions of the Software.
  14:Middlewares/Third_Party/FreeRTOS/Source/portable/GCC/ARM_CM3/portmacro.h ****  *
  15:Middlewares/Third_Party/FreeRTOS/Source/portable/GCC/ARM_CM3/portmacro.h ****  * THE SOFTWARE IS PROVIDED "AS IS", WITHOUT WARRANTY OF ANY KIND, EXPRESS OR
  16:Middlewares/Third_Party/FreeRTOS/Source/portable/GCC/ARM_CM3/portmacro.h ****  * IMPLIED, INCLUDING BUT NOT LIMITED TO THE WARRANTIES OF MERCHANTABILITY, FITNESS
  17:Middlewares/Third_Party/FreeRTOS/Source/portable/GCC/ARM_CM3/portmacro.h ****  * FOR A PARTICULAR PURPOSE AND NONINFRINGEMENT. IN NO EVENT SHALL THE AUTHORS OR
  18:Middlewares/Third_Party/FreeRTOS/Source/portable/GCC/ARM_CM3/portmacro.h ****  * COPYRIGHT HOLDERS BE LIABLE FOR ANY CLAIM, DAMAGES OR OTHER LIABILITY, WHETHER
  19:Middlewares/Third_Party/FreeRTOS/Source/portable/GCC/ARM_CM3/portmacro.h ****  * IN AN ACTION OF CONTRACT, TORT OR OTHERWISE, ARISING FROM, OUT OF OR IN
  20:Middlewares/Third_Party/FreeRTOS/Source/portable/GCC/ARM_CM3/portmacro.h ****  * CONNECTION WITH THE SOFTWARE OR THE USE OR OTHER DEALINGS IN THE SOFTWARE.
  21:Middlewares/Third_Party/FreeRTOS/Source/portable/GCC/ARM_CM3/portmacro.h ****  *
  22:Middlewares/Third_Party/FreeRTOS/Source/portable/GCC/ARM_CM3/portmacro.h ****  * http://www.FreeRTOS.org
  23:Middlewares/Third_Party/FreeRTOS/Source/portable/GCC/ARM_CM3/portmacro.h ****  * http://aws.amazon.com/freertos
  24:Middlewares/Third_Party/FreeRTOS/Source/portable/GCC/ARM_CM3/portmacro.h ****  *
  25:Middlewares/Third_Party/FreeRTOS/Source/portable/GCC/ARM_CM3/portmacro.h ****  * 1 tab == 4 spaces!
  26:Middlewares/Third_Party/FreeRTOS/Source/portable/GCC/ARM_CM3/portmacro.h ****  */
  27:Middlewares/Third_Party/FreeRTOS/Source/portable/GCC/ARM_CM3/portmacro.h **** 
  28:Middlewares/Third_Party/FreeRTOS/Source/portable/GCC/ARM_CM3/portmacro.h **** 
  29:Middlewares/Third_Party/FreeRTOS/Source/portable/GCC/ARM_CM3/portmacro.h **** #ifndef PORTMACRO_H
  30:Middlewares/Third_Party/FreeRTOS/Source/portable/GCC/ARM_CM3/portmacro.h **** #define PORTMACRO_H
  31:Middlewares/Third_Party/FreeRTOS/Source/portable/GCC/ARM_CM3/portmacro.h **** 
  32:Middlewares/Third_Party/FreeRTOS/Source/portable/GCC/ARM_CM3/portmacro.h **** #ifdef __cplusplus
  33:Middlewares/Third_Party/FreeRTOS/Source/portable/GCC/ARM_CM3/portmacro.h **** extern "C" {
  34:Middlewares/Third_Party/FreeRTOS/Source/portable/GCC/ARM_CM3/portmacro.h **** #endif
  35:Middlewares/Third_Party/FreeRTOS/Source/portable/GCC/ARM_CM3/portmacro.h **** 
  36:Middlewares/Third_Party/FreeRTOS/Source/portable/GCC/ARM_CM3/portmacro.h **** /*-----------------------------------------------------------
  37:Middlewares/Third_Party/FreeRTOS/Source/portable/GCC/ARM_CM3/portmacro.h ****  * Port specific definitions.
  38:Middlewares/Third_Party/FreeRTOS/Source/portable/GCC/ARM_CM3/portmacro.h ****  *
  39:Middlewares/Third_Party/FreeRTOS/Source/portable/GCC/ARM_CM3/portmacro.h ****  * The settings in this file configure FreeRTOS correctly for the
  40:Middlewares/Third_Party/FreeRTOS/Source/portable/GCC/ARM_CM3/portmacro.h ****  * given hardware and compiler.
  41:Middlewares/Third_Party/FreeRTOS/Source/portable/GCC/ARM_CM3/portmacro.h ****  *
  42:Middlewares/Third_Party/FreeRTOS/Source/portable/GCC/ARM_CM3/portmacro.h ****  * These settings should not be altered.
  43:Middlewares/Third_Party/FreeRTOS/Source/portable/GCC/ARM_CM3/portmacro.h ****  *-----------------------------------------------------------
  44:Middlewares/Third_Party/FreeRTOS/Source/portable/GCC/ARM_CM3/portmacro.h ****  */
  45:Middlewares/Third_Party/FreeRTOS/Source/portable/GCC/ARM_CM3/portmacro.h **** 
  46:Middlewares/Third_Party/FreeRTOS/Source/portable/GCC/ARM_CM3/portmacro.h **** /* Type definitions. */
  47:Middlewares/Third_Party/FreeRTOS/Source/portable/GCC/ARM_CM3/portmacro.h **** #define portCHAR		char
ARM GAS  C:\Users\XieFang\AppData\Local\Temp\ccBi1CPH.s 			page 21


  48:Middlewares/Third_Party/FreeRTOS/Source/portable/GCC/ARM_CM3/portmacro.h **** #define portFLOAT		float
  49:Middlewares/Third_Party/FreeRTOS/Source/portable/GCC/ARM_CM3/portmacro.h **** #define portDOUBLE		double
  50:Middlewares/Third_Party/FreeRTOS/Source/portable/GCC/ARM_CM3/portmacro.h **** #define portLONG		long
  51:Middlewares/Third_Party/FreeRTOS/Source/portable/GCC/ARM_CM3/portmacro.h **** #define portSHORT		short
  52:Middlewares/Third_Party/FreeRTOS/Source/portable/GCC/ARM_CM3/portmacro.h **** #define portSTACK_TYPE	uint32_t
  53:Middlewares/Third_Party/FreeRTOS/Source/portable/GCC/ARM_CM3/portmacro.h **** #define portBASE_TYPE	long
  54:Middlewares/Third_Party/FreeRTOS/Source/portable/GCC/ARM_CM3/portmacro.h **** 
  55:Middlewares/Third_Party/FreeRTOS/Source/portable/GCC/ARM_CM3/portmacro.h **** typedef portSTACK_TYPE StackType_t;
  56:Middlewares/Third_Party/FreeRTOS/Source/portable/GCC/ARM_CM3/portmacro.h **** typedef long BaseType_t;
  57:Middlewares/Third_Party/FreeRTOS/Source/portable/GCC/ARM_CM3/portmacro.h **** typedef unsigned long UBaseType_t;
  58:Middlewares/Third_Party/FreeRTOS/Source/portable/GCC/ARM_CM3/portmacro.h **** 
  59:Middlewares/Third_Party/FreeRTOS/Source/portable/GCC/ARM_CM3/portmacro.h **** #if( configUSE_16_BIT_TICKS == 1 )
  60:Middlewares/Third_Party/FreeRTOS/Source/portable/GCC/ARM_CM3/portmacro.h **** 	typedef uint16_t TickType_t;
  61:Middlewares/Third_Party/FreeRTOS/Source/portable/GCC/ARM_CM3/portmacro.h **** 	#define portMAX_DELAY ( TickType_t ) 0xffff
  62:Middlewares/Third_Party/FreeRTOS/Source/portable/GCC/ARM_CM3/portmacro.h **** #else
  63:Middlewares/Third_Party/FreeRTOS/Source/portable/GCC/ARM_CM3/portmacro.h **** 	typedef uint32_t TickType_t;
  64:Middlewares/Third_Party/FreeRTOS/Source/portable/GCC/ARM_CM3/portmacro.h **** 	#define portMAX_DELAY ( TickType_t ) 0xffffffffUL
  65:Middlewares/Third_Party/FreeRTOS/Source/portable/GCC/ARM_CM3/portmacro.h **** 
  66:Middlewares/Third_Party/FreeRTOS/Source/portable/GCC/ARM_CM3/portmacro.h **** 	/* 32-bit tick type on a 32-bit architecture, so reads of the tick count do
  67:Middlewares/Third_Party/FreeRTOS/Source/portable/GCC/ARM_CM3/portmacro.h **** 	not need to be guarded with a critical section. */
  68:Middlewares/Third_Party/FreeRTOS/Source/portable/GCC/ARM_CM3/portmacro.h **** 	#define portTICK_TYPE_IS_ATOMIC 1
  69:Middlewares/Third_Party/FreeRTOS/Source/portable/GCC/ARM_CM3/portmacro.h **** #endif
  70:Middlewares/Third_Party/FreeRTOS/Source/portable/GCC/ARM_CM3/portmacro.h **** /*-----------------------------------------------------------*/
  71:Middlewares/Third_Party/FreeRTOS/Source/portable/GCC/ARM_CM3/portmacro.h **** 
  72:Middlewares/Third_Party/FreeRTOS/Source/portable/GCC/ARM_CM3/portmacro.h **** /* Architecture specifics. */
  73:Middlewares/Third_Party/FreeRTOS/Source/portable/GCC/ARM_CM3/portmacro.h **** #define portSTACK_GROWTH			( -1 )
  74:Middlewares/Third_Party/FreeRTOS/Source/portable/GCC/ARM_CM3/portmacro.h **** #define portTICK_PERIOD_MS			( ( TickType_t ) 1000 / configTICK_RATE_HZ )
  75:Middlewares/Third_Party/FreeRTOS/Source/portable/GCC/ARM_CM3/portmacro.h **** #define portBYTE_ALIGNMENT			8
  76:Middlewares/Third_Party/FreeRTOS/Source/portable/GCC/ARM_CM3/portmacro.h **** /*-----------------------------------------------------------*/
  77:Middlewares/Third_Party/FreeRTOS/Source/portable/GCC/ARM_CM3/portmacro.h **** 
  78:Middlewares/Third_Party/FreeRTOS/Source/portable/GCC/ARM_CM3/portmacro.h **** /* Scheduler utilities. */
  79:Middlewares/Third_Party/FreeRTOS/Source/portable/GCC/ARM_CM3/portmacro.h **** #define portYIELD() 															\
  80:Middlewares/Third_Party/FreeRTOS/Source/portable/GCC/ARM_CM3/portmacro.h **** {																				\
  81:Middlewares/Third_Party/FreeRTOS/Source/portable/GCC/ARM_CM3/portmacro.h **** 	/* Set a PendSV to request a context switch. */								\
  82:Middlewares/Third_Party/FreeRTOS/Source/portable/GCC/ARM_CM3/portmacro.h **** 	portNVIC_INT_CTRL_REG = portNVIC_PENDSVSET_BIT;								\
  83:Middlewares/Third_Party/FreeRTOS/Source/portable/GCC/ARM_CM3/portmacro.h **** 																				\
  84:Middlewares/Third_Party/FreeRTOS/Source/portable/GCC/ARM_CM3/portmacro.h **** 	/* Barriers are normally not required but do ensure the code is completely	\
  85:Middlewares/Third_Party/FreeRTOS/Source/portable/GCC/ARM_CM3/portmacro.h **** 	within the specified behaviour for the architecture. */						\
  86:Middlewares/Third_Party/FreeRTOS/Source/portable/GCC/ARM_CM3/portmacro.h **** 	__asm volatile( "dsb" ::: "memory" );										\
  87:Middlewares/Third_Party/FreeRTOS/Source/portable/GCC/ARM_CM3/portmacro.h **** 	__asm volatile( "isb" );													\
  88:Middlewares/Third_Party/FreeRTOS/Source/portable/GCC/ARM_CM3/portmacro.h **** }
  89:Middlewares/Third_Party/FreeRTOS/Source/portable/GCC/ARM_CM3/portmacro.h **** 
  90:Middlewares/Third_Party/FreeRTOS/Source/portable/GCC/ARM_CM3/portmacro.h **** #define portNVIC_INT_CTRL_REG		( * ( ( volatile uint32_t * ) 0xe000ed04 ) )
  91:Middlewares/Third_Party/FreeRTOS/Source/portable/GCC/ARM_CM3/portmacro.h **** #define portNVIC_PENDSVSET_BIT		( 1UL << 28UL )
  92:Middlewares/Third_Party/FreeRTOS/Source/portable/GCC/ARM_CM3/portmacro.h **** #define portEND_SWITCHING_ISR( xSwitchRequired ) if( xSwitchRequired != pdFALSE ) portYIELD()
  93:Middlewares/Third_Party/FreeRTOS/Source/portable/GCC/ARM_CM3/portmacro.h **** #define portYIELD_FROM_ISR( x ) portEND_SWITCHING_ISR( x )
  94:Middlewares/Third_Party/FreeRTOS/Source/portable/GCC/ARM_CM3/portmacro.h **** /*-----------------------------------------------------------*/
  95:Middlewares/Third_Party/FreeRTOS/Source/portable/GCC/ARM_CM3/portmacro.h **** 
  96:Middlewares/Third_Party/FreeRTOS/Source/portable/GCC/ARM_CM3/portmacro.h **** /* Critical section management. */
  97:Middlewares/Third_Party/FreeRTOS/Source/portable/GCC/ARM_CM3/portmacro.h **** extern void vPortEnterCritical( void );
  98:Middlewares/Third_Party/FreeRTOS/Source/portable/GCC/ARM_CM3/portmacro.h **** extern void vPortExitCritical( void );
  99:Middlewares/Third_Party/FreeRTOS/Source/portable/GCC/ARM_CM3/portmacro.h **** #define portSET_INTERRUPT_MASK_FROM_ISR()		ulPortRaiseBASEPRI()
 100:Middlewares/Third_Party/FreeRTOS/Source/portable/GCC/ARM_CM3/portmacro.h **** #define portCLEAR_INTERRUPT_MASK_FROM_ISR(x)	vPortSetBASEPRI(x)
 101:Middlewares/Third_Party/FreeRTOS/Source/portable/GCC/ARM_CM3/portmacro.h **** #define portDISABLE_INTERRUPTS()				vPortRaiseBASEPRI()
 102:Middlewares/Third_Party/FreeRTOS/Source/portable/GCC/ARM_CM3/portmacro.h **** #define portENABLE_INTERRUPTS()					vPortSetBASEPRI(0)
 103:Middlewares/Third_Party/FreeRTOS/Source/portable/GCC/ARM_CM3/portmacro.h **** #define portENTER_CRITICAL()					vPortEnterCritical()
 104:Middlewares/Third_Party/FreeRTOS/Source/portable/GCC/ARM_CM3/portmacro.h **** #define portEXIT_CRITICAL()						vPortExitCritical()
ARM GAS  C:\Users\XieFang\AppData\Local\Temp\ccBi1CPH.s 			page 22


 105:Middlewares/Third_Party/FreeRTOS/Source/portable/GCC/ARM_CM3/portmacro.h **** 
 106:Middlewares/Third_Party/FreeRTOS/Source/portable/GCC/ARM_CM3/portmacro.h **** /*-----------------------------------------------------------*/
 107:Middlewares/Third_Party/FreeRTOS/Source/portable/GCC/ARM_CM3/portmacro.h **** 
 108:Middlewares/Third_Party/FreeRTOS/Source/portable/GCC/ARM_CM3/portmacro.h **** /* Task function macros as described on the FreeRTOS.org WEB site.  These are
 109:Middlewares/Third_Party/FreeRTOS/Source/portable/GCC/ARM_CM3/portmacro.h **** not necessary for to use this port.  They are defined so the common demo files
 110:Middlewares/Third_Party/FreeRTOS/Source/portable/GCC/ARM_CM3/portmacro.h **** (which build with all the ports) will build. */
 111:Middlewares/Third_Party/FreeRTOS/Source/portable/GCC/ARM_CM3/portmacro.h **** #define portTASK_FUNCTION_PROTO( vFunction, pvParameters ) void vFunction( void *pvParameters )
 112:Middlewares/Third_Party/FreeRTOS/Source/portable/GCC/ARM_CM3/portmacro.h **** #define portTASK_FUNCTION( vFunction, pvParameters ) void vFunction( void *pvParameters )
 113:Middlewares/Third_Party/FreeRTOS/Source/portable/GCC/ARM_CM3/portmacro.h **** /*-----------------------------------------------------------*/
 114:Middlewares/Third_Party/FreeRTOS/Source/portable/GCC/ARM_CM3/portmacro.h **** 
 115:Middlewares/Third_Party/FreeRTOS/Source/portable/GCC/ARM_CM3/portmacro.h **** /* Tickless idle/low power functionality. */
 116:Middlewares/Third_Party/FreeRTOS/Source/portable/GCC/ARM_CM3/portmacro.h **** #ifndef portSUPPRESS_TICKS_AND_SLEEP
 117:Middlewares/Third_Party/FreeRTOS/Source/portable/GCC/ARM_CM3/portmacro.h **** 	extern void vPortSuppressTicksAndSleep( TickType_t xExpectedIdleTime );
 118:Middlewares/Third_Party/FreeRTOS/Source/portable/GCC/ARM_CM3/portmacro.h **** 	#define portSUPPRESS_TICKS_AND_SLEEP( xExpectedIdleTime ) vPortSuppressTicksAndSleep( xExpectedIdl
 119:Middlewares/Third_Party/FreeRTOS/Source/portable/GCC/ARM_CM3/portmacro.h **** #endif
 120:Middlewares/Third_Party/FreeRTOS/Source/portable/GCC/ARM_CM3/portmacro.h **** /*-----------------------------------------------------------*/
 121:Middlewares/Third_Party/FreeRTOS/Source/portable/GCC/ARM_CM3/portmacro.h **** 
 122:Middlewares/Third_Party/FreeRTOS/Source/portable/GCC/ARM_CM3/portmacro.h **** /* Architecture specific optimisations. */
 123:Middlewares/Third_Party/FreeRTOS/Source/portable/GCC/ARM_CM3/portmacro.h **** #ifndef configUSE_PORT_OPTIMISED_TASK_SELECTION
 124:Middlewares/Third_Party/FreeRTOS/Source/portable/GCC/ARM_CM3/portmacro.h **** 	#define configUSE_PORT_OPTIMISED_TASK_SELECTION 1
 125:Middlewares/Third_Party/FreeRTOS/Source/portable/GCC/ARM_CM3/portmacro.h **** #endif
 126:Middlewares/Third_Party/FreeRTOS/Source/portable/GCC/ARM_CM3/portmacro.h **** 
 127:Middlewares/Third_Party/FreeRTOS/Source/portable/GCC/ARM_CM3/portmacro.h **** #if configUSE_PORT_OPTIMISED_TASK_SELECTION == 1
 128:Middlewares/Third_Party/FreeRTOS/Source/portable/GCC/ARM_CM3/portmacro.h **** 
 129:Middlewares/Third_Party/FreeRTOS/Source/portable/GCC/ARM_CM3/portmacro.h **** 	/* Generic helper function. */
 130:Middlewares/Third_Party/FreeRTOS/Source/portable/GCC/ARM_CM3/portmacro.h **** 	__attribute__( ( always_inline ) ) static inline uint8_t ucPortCountLeadingZeros( uint32_t ulBitma
 131:Middlewares/Third_Party/FreeRTOS/Source/portable/GCC/ARM_CM3/portmacro.h **** 	{
 132:Middlewares/Third_Party/FreeRTOS/Source/portable/GCC/ARM_CM3/portmacro.h **** 	uint8_t ucReturn;
 133:Middlewares/Third_Party/FreeRTOS/Source/portable/GCC/ARM_CM3/portmacro.h **** 
 134:Middlewares/Third_Party/FreeRTOS/Source/portable/GCC/ARM_CM3/portmacro.h **** 		__asm volatile ( "clz %0, %1" : "=r" ( ucReturn ) : "r" ( ulBitmap ) : "memory" );
 135:Middlewares/Third_Party/FreeRTOS/Source/portable/GCC/ARM_CM3/portmacro.h **** 		return ucReturn;
 136:Middlewares/Third_Party/FreeRTOS/Source/portable/GCC/ARM_CM3/portmacro.h **** 	}
 137:Middlewares/Third_Party/FreeRTOS/Source/portable/GCC/ARM_CM3/portmacro.h **** 
 138:Middlewares/Third_Party/FreeRTOS/Source/portable/GCC/ARM_CM3/portmacro.h **** 	/* Check the configuration. */
 139:Middlewares/Third_Party/FreeRTOS/Source/portable/GCC/ARM_CM3/portmacro.h **** 	#if( configMAX_PRIORITIES > 32 )
 140:Middlewares/Third_Party/FreeRTOS/Source/portable/GCC/ARM_CM3/portmacro.h **** 		#error configUSE_PORT_OPTIMISED_TASK_SELECTION can only be set to 1 when configMAX_PRIORITIES is 
 141:Middlewares/Third_Party/FreeRTOS/Source/portable/GCC/ARM_CM3/portmacro.h **** 	#endif
 142:Middlewares/Third_Party/FreeRTOS/Source/portable/GCC/ARM_CM3/portmacro.h **** 
 143:Middlewares/Third_Party/FreeRTOS/Source/portable/GCC/ARM_CM3/portmacro.h **** 	/* Store/clear the ready priorities in a bit map. */
 144:Middlewares/Third_Party/FreeRTOS/Source/portable/GCC/ARM_CM3/portmacro.h **** 	#define portRECORD_READY_PRIORITY( uxPriority, uxReadyPriorities ) ( uxReadyPriorities ) |= ( 1UL 
 145:Middlewares/Third_Party/FreeRTOS/Source/portable/GCC/ARM_CM3/portmacro.h **** 	#define portRESET_READY_PRIORITY( uxPriority, uxReadyPriorities ) ( uxReadyPriorities ) &= ~( 1UL 
 146:Middlewares/Third_Party/FreeRTOS/Source/portable/GCC/ARM_CM3/portmacro.h **** 
 147:Middlewares/Third_Party/FreeRTOS/Source/portable/GCC/ARM_CM3/portmacro.h **** 	/*-----------------------------------------------------------*/
 148:Middlewares/Third_Party/FreeRTOS/Source/portable/GCC/ARM_CM3/portmacro.h **** 
 149:Middlewares/Third_Party/FreeRTOS/Source/portable/GCC/ARM_CM3/portmacro.h **** 	#define portGET_HIGHEST_PRIORITY( uxTopPriority, uxReadyPriorities ) uxTopPriority = ( 31UL - ( ui
 150:Middlewares/Third_Party/FreeRTOS/Source/portable/GCC/ARM_CM3/portmacro.h **** 
 151:Middlewares/Third_Party/FreeRTOS/Source/portable/GCC/ARM_CM3/portmacro.h **** #endif /* configUSE_PORT_OPTIMISED_TASK_SELECTION */
 152:Middlewares/Third_Party/FreeRTOS/Source/portable/GCC/ARM_CM3/portmacro.h **** 
 153:Middlewares/Third_Party/FreeRTOS/Source/portable/GCC/ARM_CM3/portmacro.h **** /*-----------------------------------------------------------*/
 154:Middlewares/Third_Party/FreeRTOS/Source/portable/GCC/ARM_CM3/portmacro.h **** 
 155:Middlewares/Third_Party/FreeRTOS/Source/portable/GCC/ARM_CM3/portmacro.h **** #ifdef configASSERT
 156:Middlewares/Third_Party/FreeRTOS/Source/portable/GCC/ARM_CM3/portmacro.h **** 	void vPortValidateInterruptPriority( void );
 157:Middlewares/Third_Party/FreeRTOS/Source/portable/GCC/ARM_CM3/portmacro.h **** 	#define portASSERT_IF_INTERRUPT_PRIORITY_INVALID() 	vPortValidateInterruptPriority()
 158:Middlewares/Third_Party/FreeRTOS/Source/portable/GCC/ARM_CM3/portmacro.h **** #endif
 159:Middlewares/Third_Party/FreeRTOS/Source/portable/GCC/ARM_CM3/portmacro.h **** 
 160:Middlewares/Third_Party/FreeRTOS/Source/portable/GCC/ARM_CM3/portmacro.h **** /* portNOP() is not required by this port. */
 161:Middlewares/Third_Party/FreeRTOS/Source/portable/GCC/ARM_CM3/portmacro.h **** #define portNOP()
ARM GAS  C:\Users\XieFang\AppData\Local\Temp\ccBi1CPH.s 			page 23


 162:Middlewares/Third_Party/FreeRTOS/Source/portable/GCC/ARM_CM3/portmacro.h **** 
 163:Middlewares/Third_Party/FreeRTOS/Source/portable/GCC/ARM_CM3/portmacro.h **** #define portINLINE	__inline
 164:Middlewares/Third_Party/FreeRTOS/Source/portable/GCC/ARM_CM3/portmacro.h **** 
 165:Middlewares/Third_Party/FreeRTOS/Source/portable/GCC/ARM_CM3/portmacro.h **** #ifndef portFORCE_INLINE
 166:Middlewares/Third_Party/FreeRTOS/Source/portable/GCC/ARM_CM3/portmacro.h **** 	#define portFORCE_INLINE inline __attribute__(( always_inline))
 167:Middlewares/Third_Party/FreeRTOS/Source/portable/GCC/ARM_CM3/portmacro.h **** #endif
 168:Middlewares/Third_Party/FreeRTOS/Source/portable/GCC/ARM_CM3/portmacro.h **** 
 169:Middlewares/Third_Party/FreeRTOS/Source/portable/GCC/ARM_CM3/portmacro.h **** portFORCE_INLINE static BaseType_t xPortIsInsideInterrupt( void )
 170:Middlewares/Third_Party/FreeRTOS/Source/portable/GCC/ARM_CM3/portmacro.h **** {
 171:Middlewares/Third_Party/FreeRTOS/Source/portable/GCC/ARM_CM3/portmacro.h **** uint32_t ulCurrentInterrupt;
 172:Middlewares/Third_Party/FreeRTOS/Source/portable/GCC/ARM_CM3/portmacro.h **** BaseType_t xReturn;
 173:Middlewares/Third_Party/FreeRTOS/Source/portable/GCC/ARM_CM3/portmacro.h **** 
 174:Middlewares/Third_Party/FreeRTOS/Source/portable/GCC/ARM_CM3/portmacro.h **** 	/* Obtain the number of the currently executing interrupt. */
 175:Middlewares/Third_Party/FreeRTOS/Source/portable/GCC/ARM_CM3/portmacro.h **** 	__asm volatile( "mrs %0, ipsr" : "=r"( ulCurrentInterrupt ) :: "memory" );
 176:Middlewares/Third_Party/FreeRTOS/Source/portable/GCC/ARM_CM3/portmacro.h **** 
 177:Middlewares/Third_Party/FreeRTOS/Source/portable/GCC/ARM_CM3/portmacro.h **** 	if( ulCurrentInterrupt == 0 )
 178:Middlewares/Third_Party/FreeRTOS/Source/portable/GCC/ARM_CM3/portmacro.h **** 	{
 179:Middlewares/Third_Party/FreeRTOS/Source/portable/GCC/ARM_CM3/portmacro.h **** 		xReturn = pdFALSE;
 180:Middlewares/Third_Party/FreeRTOS/Source/portable/GCC/ARM_CM3/portmacro.h **** 	}
 181:Middlewares/Third_Party/FreeRTOS/Source/portable/GCC/ARM_CM3/portmacro.h **** 	else
 182:Middlewares/Third_Party/FreeRTOS/Source/portable/GCC/ARM_CM3/portmacro.h **** 	{
 183:Middlewares/Third_Party/FreeRTOS/Source/portable/GCC/ARM_CM3/portmacro.h **** 		xReturn = pdTRUE;
 184:Middlewares/Third_Party/FreeRTOS/Source/portable/GCC/ARM_CM3/portmacro.h **** 	}
 185:Middlewares/Third_Party/FreeRTOS/Source/portable/GCC/ARM_CM3/portmacro.h **** 
 186:Middlewares/Third_Party/FreeRTOS/Source/portable/GCC/ARM_CM3/portmacro.h **** 	return xReturn;
 187:Middlewares/Third_Party/FreeRTOS/Source/portable/GCC/ARM_CM3/portmacro.h **** }
 188:Middlewares/Third_Party/FreeRTOS/Source/portable/GCC/ARM_CM3/portmacro.h **** 
 189:Middlewares/Third_Party/FreeRTOS/Source/portable/GCC/ARM_CM3/portmacro.h **** /*-----------------------------------------------------------*/
 190:Middlewares/Third_Party/FreeRTOS/Source/portable/GCC/ARM_CM3/portmacro.h **** 
 191:Middlewares/Third_Party/FreeRTOS/Source/portable/GCC/ARM_CM3/portmacro.h **** portFORCE_INLINE static void vPortRaiseBASEPRI( void )
 540              		.loc 2 191 30 view .LVU108
 541              	.LBB21:
 192:Middlewares/Third_Party/FreeRTOS/Source/portable/GCC/ARM_CM3/portmacro.h **** {
 193:Middlewares/Third_Party/FreeRTOS/Source/portable/GCC/ARM_CM3/portmacro.h **** uint32_t ulNewBASEPRI;
 542              		.loc 2 193 1 view .LVU109
 194:Middlewares/Third_Party/FreeRTOS/Source/portable/GCC/ARM_CM3/portmacro.h **** 
 195:Middlewares/Third_Party/FreeRTOS/Source/portable/GCC/ARM_CM3/portmacro.h **** 	__asm volatile
 543              		.loc 2 195 2 view .LVU110
 196:Middlewares/Third_Party/FreeRTOS/Source/portable/GCC/ARM_CM3/portmacro.h **** 	(
 197:Middlewares/Third_Party/FreeRTOS/Source/portable/GCC/ARM_CM3/portmacro.h **** 		"	mov %0, %1												\n" \
 198:Middlewares/Third_Party/FreeRTOS/Source/portable/GCC/ARM_CM3/portmacro.h **** 		"	msr basepri, %0											\n" \
 199:Middlewares/Third_Party/FreeRTOS/Source/portable/GCC/ARM_CM3/portmacro.h **** 		"	isb														\n" \
 200:Middlewares/Third_Party/FreeRTOS/Source/portable/GCC/ARM_CM3/portmacro.h **** 		"	dsb														\n" \
 201:Middlewares/Third_Party/FreeRTOS/Source/portable/GCC/ARM_CM3/portmacro.h **** 		:"=r" (ulNewBASEPRI) : "i" ( configMAX_SYSCALL_INTERRUPT_PRIORITY ) : "memory"
 202:Middlewares/Third_Party/FreeRTOS/Source/portable/GCC/ARM_CM3/portmacro.h **** 	);
 544              		.loc 2 202 3 is_stmt 0 view .LVU111
 545              		.syntax unified
 546              	@ 202 "Middlewares/Third_Party/FreeRTOS/Source/portable/GCC/ARM_CM3/portmacro.h" 1
 547 002a 4FF05003 			mov r3, #80												
 548 002e 83F31188 		msr basepri, r3											
 549 0032 BFF36F8F 		isb														
 550 0036 BFF34F8F 		dsb														
 551              	
 552              	@ 0 "" 2
 553              	.LVL40:
 554              		.thumb
 555              		.syntax unified
ARM GAS  C:\Users\XieFang\AppData\Local\Temp\ccBi1CPH.s 			page 24


 556              	.L33:
 557              		.loc 2 202 3 view .LVU112
 558              	.LBE21:
 559              	.LBE20:
 247:xiagb/bottom/cli.cpp **** 
 560              		.loc 1 247 17 is_stmt 1 discriminator 1 view .LVU113
 247:xiagb/bottom/cli.cpp **** 
 561              		.loc 1 247 17 discriminator 1 view .LVU114
 562 003a FEE7     		b	.L33
 563              	.LVL41:
 564              	.L38:
 252:xiagb/bottom/cli.cpp **** 
 565              		.loc 1 252 17 view .LVU115
 566              	.LBB22:
 567              	.LBI22:
 191:Middlewares/Third_Party/FreeRTOS/Source/portable/GCC/ARM_CM3/portmacro.h **** {
 568              		.loc 2 191 30 view .LVU116
 569              	.LBB23:
 193:Middlewares/Third_Party/FreeRTOS/Source/portable/GCC/ARM_CM3/portmacro.h **** 
 570              		.loc 2 193 1 view .LVU117
 195:Middlewares/Third_Party/FreeRTOS/Source/portable/GCC/ARM_CM3/portmacro.h **** 	(
 571              		.loc 2 195 2 view .LVU118
 572              		.loc 2 202 3 is_stmt 0 view .LVU119
 573              		.syntax unified
 574              	@ 202 "Middlewares/Third_Party/FreeRTOS/Source/portable/GCC/ARM_CM3/portmacro.h" 1
 575 003c 4FF05003 			mov r3, #80												
 576 0040 83F31188 		msr basepri, r3											
 577 0044 BFF36F8F 		isb														
 578 0048 BFF34F8F 		dsb														
 579              	
 580              	@ 0 "" 2
 581              	.LVL42:
 582              		.thumb
 583              		.syntax unified
 584              	.L35:
 585              		.loc 2 202 3 view .LVU120
 586              	.LBE23:
 587              	.LBE22:
 252:xiagb/bottom/cli.cpp **** 
 588              		.loc 1 252 17 is_stmt 1 discriminator 2 view .LVU121
 252:xiagb/bottom/cli.cpp **** 
 589              		.loc 1 252 17 discriminator 2 view .LVU122
 590 004c FEE7     		b	.L35
 591              	.L40:
 592 004e 00BF     		.align	2
 593              	.L39:
 594 0050 00000000 		.word	.LANCHOR3
 595              		.cfi_endproc
 596              	.LFE310:
 597              		.fnend
 599              		.section	.text._ZN5xiagb15parserNamespace12cliNamespace24FreeRTOS_CLIGetParameterEPKcmPl,"ax",%pro
 600              		.align	1
 601              		.global	_ZN5xiagb15parserNamespace12cliNamespace24FreeRTOS_CLIGetParameterEPKcmPl
 602              		.syntax unified
 603              		.thumb
 604              		.thumb_func
 605              		.fpu softvfp
ARM GAS  C:\Users\XieFang\AppData\Local\Temp\ccBi1CPH.s 			page 25


 607              	_ZN5xiagb15parserNamespace12cliNamespace24FreeRTOS_CLIGetParameterEPKcmPl:
 608              		.fnstart
 609              	.LVL43:
 610              	.LFB312:
 360:xiagb/bottom/cli.cpp ****                 UBaseType_t uxParametersFound = 0;
 611              		.loc 1 360 13 view -0
 612              		.cfi_startproc
 613              		@ args = 0, pretend = 0, frame = 0
 614              		@ frame_needed = 0, uses_anonymous_args = 0
 615              		@ link register save eliminated.
 360:xiagb/bottom/cli.cpp ****                 UBaseType_t uxParametersFound = 0;
 616              		.loc 1 360 13 is_stmt 0 view .LVU124
 617 0000 10B4     		push	{r4}
 618              	.LCFI12:
 619              		.cfi_def_cfa_offset 4
 620              		.cfi_offset 4, -4
 361:xiagb/bottom/cli.cpp ****                 const char *pcReturn = NULL;
 621              		.loc 1 361 17 is_stmt 1 view .LVU125
 622              	.LVL44:
 362:xiagb/bottom/cli.cpp **** 
 623              		.loc 1 362 17 view .LVU126
 364:xiagb/bottom/cli.cpp **** 
 624              		.loc 1 364 17 view .LVU127
 364:xiagb/bottom/cli.cpp **** 
 625              		.loc 1 364 42 is_stmt 0 view .LVU128
 626 0002 0024     		movs	r4, #0
 627 0004 1460     		str	r4, [r2]
 628 0006 08E0     		b	.L47
 629              	.LVL45:
 630              	.L46:
 375:xiagb/bottom/cli.cpp ****                     {
 631              		.loc 1 375 21 is_stmt 1 view .LVU129
 375:xiagb/bottom/cli.cpp ****                     {
 632              		.loc 1 375 57 view .LVU130
 375:xiagb/bottom/cli.cpp ****                     {
 633              		.loc 1 375 30 is_stmt 0 view .LVU131
 634 0008 0378     		ldrb	r3, [r0]	@ zero_extendqisi2
 375:xiagb/bottom/cli.cpp ****                     {
 635              		.loc 1 375 57 view .LVU132
 636 000a 202B     		cmp	r3, #32
 637 000c 01D1     		bne	.L45
 377:xiagb/bottom/cli.cpp ****                     }
 638              		.loc 1 377 25 is_stmt 1 view .LVU133
 377:xiagb/bottom/cli.cpp ****                     }
 639              		.loc 1 377 40 is_stmt 0 view .LVU134
 640 000e 0130     		adds	r0, r0, #1
 641              	.LVL46:
 375:xiagb/bottom/cli.cpp ****                     {
 642              		.loc 1 375 21 view .LVU135
 643 0010 FAE7     		b	.L46
 644              	.L45:
 382:xiagb/bottom/cli.cpp ****                     {
 645              		.loc 1 382 21 is_stmt 1 view .LVU136
 646 0012 E3B1     		cbz	r3, .L51
 385:xiagb/bottom/cli.cpp **** 
 647              		.loc 1 385 25 view .LVU137
 385:xiagb/bottom/cli.cpp **** 
ARM GAS  C:\Users\XieFang\AppData\Local\Temp\ccBi1CPH.s 			page 26


 648              		.loc 1 385 42 is_stmt 0 view .LVU138
 649 0014 0134     		adds	r4, r4, #1
 650              	.LVL47:
 388:xiagb/bottom/cli.cpp ****                         {
 651              		.loc 1 388 25 is_stmt 1 view .LVU139
 652 0016 A142     		cmp	r1, r4
 653 0018 08D0     		beq	.L54
 654              	.LVL48:
 655              	.L47:
 366:xiagb/bottom/cli.cpp ****                 {
 656              		.loc 1 366 17 view .LVU140
 366:xiagb/bottom/cli.cpp ****                 {
 657              		.loc 1 366 42 view .LVU141
 658 001a 8C42     		cmp	r4, r1
 659 001c 14D2     		bcs	.L50
 660              	.L44:
 369:xiagb/bottom/cli.cpp ****                     {
 661              		.loc 1 369 21 view .LVU142
 369:xiagb/bottom/cli.cpp ****                     {
 662              		.loc 1 369 57 view .LVU143
 369:xiagb/bottom/cli.cpp ****                     {
 663              		.loc 1 369 30 is_stmt 0 view .LVU144
 664 001e 0378     		ldrb	r3, [r0]	@ zero_extendqisi2
 369:xiagb/bottom/cli.cpp ****                     {
 665              		.loc 1 369 57 view .LVU145
 666 0020 002B     		cmp	r3, #0
 667 0022 F1D0     		beq	.L46
 369:xiagb/bottom/cli.cpp ****                     {
 668              		.loc 1 369 57 discriminator 1 view .LVU146
 669 0024 202B     		cmp	r3, #32
 670 0026 EFD0     		beq	.L46
 371:xiagb/bottom/cli.cpp ****                     }
 671              		.loc 1 371 25 is_stmt 1 view .LVU147
 371:xiagb/bottom/cli.cpp ****                     }
 672              		.loc 1 371 40 is_stmt 0 view .LVU148
 673 0028 0130     		adds	r0, r0, #1
 674              	.LVL49:
 369:xiagb/bottom/cli.cpp ****                     {
 675              		.loc 1 369 21 view .LVU149
 676 002a F8E7     		b	.L44
 677              	.L54:
 369:xiagb/bottom/cli.cpp ****                     {
 678              		.loc 1 369 21 view .LVU150
 679 002c 0146     		mov	r1, r0
 680              	.LVL50:
 681              	.L49:
 392:xiagb/bottom/cli.cpp ****                             {
 682              		.loc 1 392 29 is_stmt 1 view .LVU151
 392:xiagb/bottom/cli.cpp ****                             {
 683              		.loc 1 392 65 view .LVU152
 392:xiagb/bottom/cli.cpp ****                             {
 684              		.loc 1 392 38 is_stmt 0 view .LVU153
 685 002e 0B78     		ldrb	r3, [r1]	@ zero_extendqisi2
 392:xiagb/bottom/cli.cpp ****                             {
 686              		.loc 1 392 65 view .LVU154
 687 0030 33B1     		cbz	r3, .L48
 392:xiagb/bottom/cli.cpp ****                             {
ARM GAS  C:\Users\XieFang\AppData\Local\Temp\ccBi1CPH.s 			page 27


 688              		.loc 1 392 65 discriminator 1 view .LVU155
 689 0032 202B     		cmp	r3, #32
 690 0034 04D0     		beq	.L48
 394:xiagb/bottom/cli.cpp ****                                 pcCommandString++;            //‰∏ã‰∏Ä‰∏™Â≠óÁ¨¶
 691              		.loc 1 394 33 is_stmt 1 view .LVU156
 394:xiagb/bottom/cli.cpp ****                                 pcCommandString++;            //‰∏ã‰∏Ä‰∏™Â≠óÁ¨¶
 692              		.loc 1 394 34 is_stmt 0 view .LVU157
 693 0036 1368     		ldr	r3, [r2]
 394:xiagb/bottom/cli.cpp ****                                 pcCommandString++;            //‰∏ã‰∏Ä‰∏™Â≠óÁ¨¶
 694              		.loc 1 394 59 view .LVU158
 695 0038 0133     		adds	r3, r3, #1
 696 003a 1360     		str	r3, [r2]
 395:xiagb/bottom/cli.cpp ****                             }
 697              		.loc 1 395 33 is_stmt 1 view .LVU159
 395:xiagb/bottom/cli.cpp ****                             }
 698              		.loc 1 395 48 is_stmt 0 view .LVU160
 699 003c 0131     		adds	r1, r1, #1
 700              	.LVL51:
 392:xiagb/bottom/cli.cpp ****                             {
 701              		.loc 1 392 29 view .LVU161
 702 003e F6E7     		b	.L49
 703              	.L48:
 398:xiagb/bottom/cli.cpp ****                             {
 704              		.loc 1 398 29 is_stmt 1 view .LVU162
 398:xiagb/bottom/cli.cpp ****                             {
 705              		.loc 1 398 33 is_stmt 0 view .LVU163
 706 0040 1368     		ldr	r3, [r2]
 398:xiagb/bottom/cli.cpp ****                             {
 707              		.loc 1 398 29 view .LVU164
 708 0042 13B9     		cbnz	r3, .L41
 400:xiagb/bottom/cli.cpp ****                             }
 709              		.loc 1 400 42 view .LVU165
 710 0044 0020     		movs	r0, #0
 711              	.LVL52:
 412:xiagb/bottom/cli.cpp ****             }
 712              		.loc 1 412 17 is_stmt 1 view .LVU166
 412:xiagb/bottom/cli.cpp ****             }
 713              		.loc 1 412 24 is_stmt 0 view .LVU167
 714 0046 00E0     		b	.L41
 715              	.LVL53:
 716              	.L50:
 362:xiagb/bottom/cli.cpp **** 
 717              		.loc 1 362 29 view .LVU168
 718 0048 0020     		movs	r0, #0
 719              	.LVL54:
 720              	.L41:
 413:xiagb/bottom/cli.cpp **** 
 721              		.loc 1 413 13 view .LVU169
 722 004a 10BC     		pop	{r4}
 723              	.LCFI13:
 724              		.cfi_remember_state
 725              		.cfi_restore 4
 726              		.cfi_def_cfa_offset 0
 727              	.LVL55:
 413:xiagb/bottom/cli.cpp **** 
 728              		.loc 1 413 13 view .LVU170
 729 004c 7047     		bx	lr
ARM GAS  C:\Users\XieFang\AppData\Local\Temp\ccBi1CPH.s 			page 28


 730              	.LVL56:
 731              	.L51:
 732              	.LCFI14:
 733              		.cfi_restore_state
 362:xiagb/bottom/cli.cpp **** 
 734              		.loc 1 362 29 view .LVU171
 735 004e 0020     		movs	r0, #0
 736              	.LVL57:
 362:xiagb/bottom/cli.cpp **** 
 737              		.loc 1 362 29 view .LVU172
 738 0050 FBE7     		b	.L41
 739              		.cfi_endproc
 740              	.LFE312:
 741              		.cantunwind
 742              		.fnend
 744              		.section	.rodata._ZN5xiagb15parserNamespace12cliNamespace23prvParameterEchoCommandEPcjPKc.str1.4,"
 745              		.align	2
 746              	.LC0:
 747 0000 54686520 		.ascii	"The parameters were:\015\012\000"
 747      70617261 
 747      6D657465 
 747      72732077 
 747      6572653A 
 748 0017 00       		.align	2
 749              	.LC1:
 750 0018 25643A20 		.ascii	"%d: \000"
 750      00
 751 001d 000000   		.align	2
 752              	.LC2:
 753 0020 0D0A00   		.ascii	"\015\012\000"
 754              		.section	.text._ZN5xiagb15parserNamespace12cliNamespace23prvParameterEchoCommandEPcjPKc,"ax",%prog
 755              		.align	1
 756              		.global	_ZN5xiagb15parserNamespace12cliNamespace23prvParameterEchoCommandEPcjPKc
 757              		.syntax unified
 758              		.thumb
 759              		.thumb_func
 760              		.fpu softvfp
 762              	_ZN5xiagb15parserNamespace12cliNamespace23prvParameterEchoCommandEPcjPKc:
 763              		.fnstart
 764              	.LVL58:
 765              	.LFB317:
 484:xiagb/bottom/cli.cpp **** 
 485:xiagb/bottom/cli.cpp ****             //‰∏ÄÊ¨°
 486:xiagb/bottom/cli.cpp ****             bool prvTaskStatsCommand(char *pcWriteBuffer, size_t xWriteBufferLen, const char *pcCom
 487:xiagb/bottom/cli.cpp ****             {
 488:xiagb/bottom/cli.cpp ****                 const char *const pcHeader = "     State   Priority  Stack    #\r\n****************
 489:xiagb/bottom/cli.cpp ****                 BaseType_t xSpacePadding;
 490:xiagb/bottom/cli.cpp **** 
 491:xiagb/bottom/cli.cpp ****                 /* Remove compile time warnings about unused parameters, and check the
 492:xiagb/bottom/cli.cpp ****         write buffer is not NULL.  NOTE - for simplicity, this example assumes the
 493:xiagb/bottom/cli.cpp ****         write buffer length is adequate, so does not check for buffer overflows. */
 494:xiagb/bottom/cli.cpp ****                 (void)pcCommandString;
 495:xiagb/bottom/cli.cpp ****                 (void)xWriteBufferLen;
 496:xiagb/bottom/cli.cpp ****                 configASSERT(pcWriteBuffer);
 497:xiagb/bottom/cli.cpp **** 
 498:xiagb/bottom/cli.cpp ****                 /* Generate a table of task stats. */
 499:xiagb/bottom/cli.cpp ****                 strcpy(pcWriteBuffer, "Task");
ARM GAS  C:\Users\XieFang\AppData\Local\Temp\ccBi1CPH.s 			page 29


 500:xiagb/bottom/cli.cpp ****                 pcWriteBuffer += strlen(pcWriteBuffer);
 501:xiagb/bottom/cli.cpp **** 
 502:xiagb/bottom/cli.cpp ****                 /* Minus three for the null terminator and half the number of characters in
 503:xiagb/bottom/cli.cpp ****         "Task" so the column lines up with the centre of the heading. */
 504:xiagb/bottom/cli.cpp ****                 configASSERT(configMAX_TASK_NAME_LEN > 3);
 505:xiagb/bottom/cli.cpp ****                 //Âú®"Task"ÂêéÈù¢Ê∑ªÂä†ÊúÄÂ§ßÈÖçÁΩÆÁöÑÊï∞ÈáèÁöÑÁ©∫Ê†º
 506:xiagb/bottom/cli.cpp ****                 for (xSpacePadding = strlen("Task"); xSpacePadding < (configMAX_TASK_NAME_LEN - 3);
 507:xiagb/bottom/cli.cpp ****                 {
 508:xiagb/bottom/cli.cpp ****                     /* Add a space to align columns after the task's name. */
 509:xiagb/bottom/cli.cpp ****                     *pcWriteBuffer = ' ';
 510:xiagb/bottom/cli.cpp ****                     pcWriteBuffer++;
 511:xiagb/bottom/cli.cpp **** 
 512:xiagb/bottom/cli.cpp ****                     /* Á°Æ‰øùÊúÄÂêé‰∏Ä‰∏™Â≠óÁ¨¶‰∏∫Á©∫ÔºåÂèØËÉΩÊòØÈò≤Ê≠¢Êüê‰∫õÈóÆÈ¢ò„ÄÇÊó†Áõ¥Êé•‰ΩúÁ
 513:xiagb/bottom/cli.cpp ****                     *pcWriteBuffer = 0x00;
 514:xiagb/bottom/cli.cpp ****                 }
 515:xiagb/bottom/cli.cpp ****                 strcpy(pcWriteBuffer, pcHeader);
 516:xiagb/bottom/cli.cpp ****                 vTaskList(pcWriteBuffer + strlen(pcHeader));
 517:xiagb/bottom/cli.cpp **** 
 518:xiagb/bottom/cli.cpp ****                 /* There is no more data to return after this single string, so return
 519:xiagb/bottom/cli.cpp ****         pdFALSE. */
 520:xiagb/bottom/cli.cpp ****                 return pdFALSE;
 521:xiagb/bottom/cli.cpp ****             }
 522:xiagb/bottom/cli.cpp **** 
 523:xiagb/bottom/cli.cpp ****             //‰∏ÄÊ¨°
 524:xiagb/bottom/cli.cpp ****             bool prvQueryHeapCommand(char *pcWriteBuffer, size_t xWriteBufferLen, const char *pcCom
 525:xiagb/bottom/cli.cpp ****             {
 526:xiagb/bottom/cli.cpp ****                 /* Remove compile time warnings about unused parameters, and check the
 527:xiagb/bottom/cli.cpp ****         write buffer is not NULL.  NOTE - for simplicity, this example assumes the
 528:xiagb/bottom/cli.cpp ****         write buffer length is adequate, so does not check for buffer overflows. */
 529:xiagb/bottom/cli.cpp ****                 (void)pcCommandString;
 530:xiagb/bottom/cli.cpp ****                 (void)xWriteBufferLen;
 531:xiagb/bottom/cli.cpp ****                 configASSERT(pcWriteBuffer);
 532:xiagb/bottom/cli.cpp **** 
 533:xiagb/bottom/cli.cpp ****                 sprintf(pcWriteBuffer, "Current free heap %d bytes, minimum ever free heap %d bytes
 534:xiagb/bottom/cli.cpp **** 
 535:xiagb/bottom/cli.cpp ****                 /* There is no more data to return after this single string, so return
 536:xiagb/bottom/cli.cpp ****         pdFALSE. */
 537:xiagb/bottom/cli.cpp ****                 return pdFALSE;
 538:xiagb/bottom/cli.cpp ****             }
 539:xiagb/bottom/cli.cpp **** 
 540:xiagb/bottom/cli.cpp ****             //Â§öÊ¨°
 541:xiagb/bottom/cli.cpp ****             bool prvParameterEchoCommand(char *pcWriteBuffer, size_t xWriteBufferLen, const char *p
 542:xiagb/bottom/cli.cpp ****             {
 766              		.loc 1 542 13 is_stmt 1 view -0
 767              		.cfi_startproc
 768              		@ args = 0, pretend = 0, frame = 8
 769              		@ frame_needed = 0, uses_anonymous_args = 0
 543:xiagb/bottom/cli.cpp ****                 const char *pcParameter; //ÂèÇÊï∞ÁöÑ‰ΩçÁΩÆ
 770              		.loc 1 543 17 view .LVU174
 544:xiagb/bottom/cli.cpp ****                 BaseType_t xParameterStringLength, xReturn;
 771              		.loc 1 544 17 view .LVU175
 545:xiagb/bottom/cli.cpp ****                 static UBaseType_t uxParameterNumber = 0; //Á¨¨Âá†‰∏™ÂèÇÊï∞„ÄÇÂèØÊîπÂèØÂ≠ò
 772              		.loc 1 545 17 view .LVU176
 546:xiagb/bottom/cli.cpp **** 
 547:xiagb/bottom/cli.cpp ****                 /* Remove compile time warnings about unused parameters, and check the
 548:xiagb/bottom/cli.cpp ****         write buffer is not NULL.  NOTE - for simplicity, this example assumes the
 549:xiagb/bottom/cli.cpp ****         write buffer length is adequate, so does not check for buffer overflows. */
ARM GAS  C:\Users\XieFang\AppData\Local\Temp\ccBi1CPH.s 			page 30


 550:xiagb/bottom/cli.cpp ****                 (void)pcCommandString;
 773              		.loc 1 550 17 view .LVU177
 551:xiagb/bottom/cli.cpp ****                 (void)xWriteBufferLen;
 774              		.loc 1 551 17 view .LVU178
 552:xiagb/bottom/cli.cpp ****                 configASSERT(pcWriteBuffer);
 775              		.loc 1 552 17 view .LVU179
 776 0000 C0B1     		cbz	r0, .L67
 542:xiagb/bottom/cli.cpp ****                 const char *pcParameter; //ÂèÇÊï∞ÁöÑ‰ΩçÁΩÆ
 777              		.loc 1 542 13 is_stmt 0 discriminator 2 view .LVU180
 778 0002 70B5     		push	{r4, r5, r6, lr}
 779              		.save {r4, r5, r6, lr}
 780              	.LCFI15:
 781              		.cfi_def_cfa_offset 16
 782              		.cfi_offset 4, -16
 783              		.cfi_offset 5, -12
 784              		.cfi_offset 6, -8
 785              		.cfi_offset 14, -4
 786              		.pad #8
 787 0004 82B0     		sub	sp, sp, #8
 788              	.LCFI16:
 789              		.cfi_def_cfa_offset 24
 790 0006 0D46     		mov	r5, r1
 791 0008 1346     		mov	r3, r2
 792 000a 0446     		mov	r4, r0
 793              		.loc 1 552 44 is_stmt 1 discriminator 2 view .LVU181
 553:xiagb/bottom/cli.cpp **** 
 554:xiagb/bottom/cli.cpp ****                 static int32_t argBuffer[20]; //ÂèÇÊï∞ÊöÇÂ≠ò
 794              		.loc 1 554 17 discriminator 2 view .LVU182
 555:xiagb/bottom/cli.cpp ****                 static uint8_t count;         //ÂèÇÊï∞ËÆ°Êï∞
 795              		.loc 1 555 17 discriminator 2 view .LVU183
 556:xiagb/bottom/cli.cpp **** 
 557:xiagb/bottom/cli.cpp ****                 if (uxParameterNumber == 0)
 796              		.loc 1 557 17 discriminator 2 view .LVU184
 797              	.LBB24:
 798              		.loc 1 557 39 is_stmt 0 discriminator 2 view .LVU185
 799 000c 3B4A     		ldr	r2, .L68
 800              	.LVL59:
 801              		.loc 1 557 39 discriminator 2 view .LVU186
 802 000e 1168     		ldr	r1, [r2]
 803              	.LVL60:
 804              		.loc 1 557 17 discriminator 2 view .LVU187
 805 0010 C9B9     		cbnz	r1, .L58
 558:xiagb/bottom/cli.cpp ****                 {
 559:xiagb/bottom/cli.cpp ****                     /* The first time the function is called after the command has been
 560:xiagb/bottom/cli.cpp ****             entered just a header string is returned. */
 561:xiagb/bottom/cli.cpp ****                     sprintf(pcWriteBuffer, "The parameters were:\r\n");
 806              		.loc 1 561 21 is_stmt 1 view .LVU188
 807              		.loc 1 561 28 is_stmt 0 view .LVU189
 808 0012 3B4D     		ldr	r5, .L68+4
 809              	.LVL61:
 810              		.loc 1 561 28 view .LVU190
 811 0014 0FCD     		ldmia	r5!, {r0, r1, r2, r3}
 812              	.LVL62:
 813              		.loc 1 561 28 view .LVU191
 814 0016 2060     		str	r0, [r4]	@ unaligned
 815 0018 6160     		str	r1, [r4, #4]	@ unaligned
 816 001a A260     		str	r2, [r4, #8]	@ unaligned
ARM GAS  C:\Users\XieFang\AppData\Local\Temp\ccBi1CPH.s 			page 31


 817 001c E360     		str	r3, [r4, #12]	@ unaligned
 818 001e 2868     		ldr	r0, [r5]
 819 0020 2061     		str	r0, [r4, #16]	@ unaligned
 820 0022 AA88     		ldrh	r2, [r5, #4]	@ unaligned
 821 0024 AB79     		ldrb	r3, [r5, #6]	@ zero_extendqisi2
 822 0026 A282     		strh	r2, [r4, #20]	@ unaligned
 823 0028 A375     		strb	r3, [r4, #22]
 562:xiagb/bottom/cli.cpp **** 
 563:xiagb/bottom/cli.cpp ****                     /* Next time the function is called the first parameter will be echoed
 564:xiagb/bottom/cli.cpp ****             back. */
 565:xiagb/bottom/cli.cpp ****                     uxParameterNumber = 1U;
 824              		.loc 1 565 21 is_stmt 1 view .LVU192
 825              		.loc 1 565 39 is_stmt 0 view .LVU193
 826 002a 0120     		movs	r0, #1
 827 002c 334B     		ldr	r3, .L68
 828 002e 1860     		str	r0, [r3]
 566:xiagb/bottom/cli.cpp **** 
 567:xiagb/bottom/cli.cpp ****                     /* There is more data to be returned as no parameters have been echoed
 568:xiagb/bottom/cli.cpp ****             back yet. */
 569:xiagb/bottom/cli.cpp ****                     xReturn = pdPASS;
 829              		.loc 1 569 21 is_stmt 1 view .LVU194
 830              	.LVL63:
 831              	.L59:
 832              		.loc 1 569 21 is_stmt 0 view .LVU195
 833              	.LBE24:
 570:xiagb/bottom/cli.cpp ****                 }
 571:xiagb/bottom/cli.cpp ****                 else
 572:xiagb/bottom/cli.cpp ****                 {
 573:xiagb/bottom/cli.cpp ****                     /* Obtain the parameter string. */
 574:xiagb/bottom/cli.cpp ****                     pcParameter = FreeRTOS_CLIGetParameter(
 575:xiagb/bottom/cli.cpp ****                         pcCommandString,        /* The command string itself. */
 576:xiagb/bottom/cli.cpp ****                         uxParameterNumber,      /* ÊÉ≥Ë¶ÅÈÇ£‰∏™Â∫èÂè∑ÁöÑÂèÇÊï∞ */
 577:xiagb/bottom/cli.cpp ****                         &xParameterStringLength /* Store the parameter string length. */
 578:xiagb/bottom/cli.cpp ****                     );
 579:xiagb/bottom/cli.cpp **** 
 580:xiagb/bottom/cli.cpp ****                     if (pcParameter != NULL)
 581:xiagb/bottom/cli.cpp ****                     {
 582:xiagb/bottom/cli.cpp ****                         /* Return the parameter string. */
 583:xiagb/bottom/cli.cpp ****                         memset(pcWriteBuffer, 0x00, xWriteBufferLen); //Ê∏ÖÁ©∫ËæìÂá∫ÁºìÂ≠ò
 584:xiagb/bottom/cli.cpp ****                         sprintf(pcWriteBuffer, "%d: ", (int)uxParameterNumber);
 585:xiagb/bottom/cli.cpp ****                         strncat(pcWriteBuffer, (char *)pcParameter, (size_t)xParameterStringLength)
 586:xiagb/bottom/cli.cpp ****                         strncat(pcWriteBuffer, "\r\n", strlen("\r\n") + 1);
 587:xiagb/bottom/cli.cpp **** 
 588:xiagb/bottom/cli.cpp ****                         /* There might be more parameters to return after this one. */
 589:xiagb/bottom/cli.cpp ****                         xReturn = pdTRUE;
 590:xiagb/bottom/cli.cpp ****                         uxParameterNumber++;
 591:xiagb/bottom/cli.cpp **** 
 592:xiagb/bottom/cli.cpp ****                         if (echoDataQueue)
 593:xiagb/bottom/cli.cpp ****                         {
 594:xiagb/bottom/cli.cpp ****                             // int32_t buffer = atoi(pcParameter);
 595:xiagb/bottom/cli.cpp ****                             argBuffer[count] = atoi(pcParameter);
 596:xiagb/bottom/cli.cpp ****                             count++;
 597:xiagb/bottom/cli.cpp ****                             // osMessageQueuePut(echoDataQueue, &buffer, 0, osWaitForever);
 598:xiagb/bottom/cli.cpp ****                         }
 599:xiagb/bottom/cli.cpp ****                     }
 600:xiagb/bottom/cli.cpp ****                     else
 601:xiagb/bottom/cli.cpp ****                     {
ARM GAS  C:\Users\XieFang\AppData\Local\Temp\ccBi1CPH.s 			page 32


 602:xiagb/bottom/cli.cpp ****                         /* No more parameters were found.  Make sure the write buffer does
 603:xiagb/bottom/cli.cpp ****                 not contain a valid string. */
 604:xiagb/bottom/cli.cpp ****                         pcWriteBuffer[0] = 0x00;
 605:xiagb/bottom/cli.cpp **** 
 606:xiagb/bottom/cli.cpp ****                         /* No more data to return. */
 607:xiagb/bottom/cli.cpp ****                         xReturn = pdFALSE;
 608:xiagb/bottom/cli.cpp **** 
 609:xiagb/bottom/cli.cpp ****                         if (echoDataQueue)
 610:xiagb/bottom/cli.cpp ****                         {
 611:xiagb/bottom/cli.cpp ****                             // uint8_t &&buffer = uxParameterNumber - 1;
 612:xiagb/bottom/cli.cpp ****                             // osMessageQueuePut(echoDataSizeQueue, &buffer, 0, 0);
 613:xiagb/bottom/cli.cpp ****                             osMessageQueuePut(echoDataQueue, &count, 0, osWaitForever); //ÂèÇÊï∞‰∏™
 614:xiagb/bottom/cli.cpp ****                             for (uint8_t i = 0; i < count; i++)
 615:xiagb/bottom/cli.cpp ****                                 osMessageQueuePut(echoDataQueue, &argBuffer[i], 0, osWaitForever);
 616:xiagb/bottom/cli.cpp ****                             count = 0;
 617:xiagb/bottom/cli.cpp ****                         }
 618:xiagb/bottom/cli.cpp **** 
 619:xiagb/bottom/cli.cpp ****                         /* Start over the next time this command is executed. */
 620:xiagb/bottom/cli.cpp ****                         uxParameterNumber = 0;
 621:xiagb/bottom/cli.cpp ****                     }
 622:xiagb/bottom/cli.cpp ****                 }
 623:xiagb/bottom/cli.cpp **** 
 624:xiagb/bottom/cli.cpp ****                 return xReturn;
 834              		.loc 1 624 17 is_stmt 1 view .LVU196
 625:xiagb/bottom/cli.cpp ****             }
 835              		.loc 1 625 13 is_stmt 0 view .LVU197
 836 0030 02B0     		add	sp, sp, #8
 837              	.LCFI17:
 838              		.cfi_def_cfa_offset 16
 839              		@ sp needed
 840 0032 70BD     		pop	{r4, r5, r6, pc}
 841              	.LVL64:
 842              	.L67:
 843              	.LCFI18:
 844              		.cfi_def_cfa_offset 0
 845              		.cfi_restore 4
 846              		.cfi_restore 5
 847              		.cfi_restore 6
 848              		.cfi_restore 14
 552:xiagb/bottom/cli.cpp **** 
 849              		.loc 1 552 17 is_stmt 1 view .LVU198
 850              	.LBB31:
 851              	.LBI31:
 191:Middlewares/Third_Party/FreeRTOS/Source/portable/GCC/ARM_CM3/portmacro.h **** {
 852              		.loc 2 191 30 view .LVU199
 853              	.LBB32:
 193:Middlewares/Third_Party/FreeRTOS/Source/portable/GCC/ARM_CM3/portmacro.h **** 
 854              		.loc 2 193 1 view .LVU200
 195:Middlewares/Third_Party/FreeRTOS/Source/portable/GCC/ARM_CM3/portmacro.h **** 	(
 855              		.loc 2 195 2 view .LVU201
 856              		.loc 2 202 3 is_stmt 0 view .LVU202
 857              		.syntax unified
 858              	@ 202 "Middlewares/Third_Party/FreeRTOS/Source/portable/GCC/ARM_CM3/portmacro.h" 1
 859 0034 4FF05003 			mov r3, #80												
 860 0038 83F31188 		msr basepri, r3											
 861 003c BFF36F8F 		isb														
 862 0040 BFF34F8F 		dsb														
ARM GAS  C:\Users\XieFang\AppData\Local\Temp\ccBi1CPH.s 			page 33


 863              	
 864              	@ 0 "" 2
 865              	.LVL65:
 866              		.thumb
 867              		.syntax unified
 868              	.L57:
 869              		.loc 2 202 3 view .LVU203
 870              	.LBE32:
 871              	.LBE31:
 552:xiagb/bottom/cli.cpp **** 
 872              		.loc 1 552 17 is_stmt 1 discriminator 1 view .LVU204
 552:xiagb/bottom/cli.cpp **** 
 873              		.loc 1 552 17 discriminator 1 view .LVU205
 874 0044 FEE7     		b	.L57
 875              	.LVL66:
 876              	.L58:
 877              	.LCFI19:
 878              		.cfi_def_cfa_offset 24
 879              		.cfi_offset 4, -16
 880              		.cfi_offset 5, -12
 881              		.cfi_offset 6, -8
 882              		.cfi_offset 14, -4
 883              	.LBB33:
 884              	.LBB25:
 574:xiagb/bottom/cli.cpp ****                         pcCommandString,        /* The command string itself. */
 885              		.loc 1 574 21 view .LVU206
 574:xiagb/bottom/cli.cpp ****                         pcCommandString,        /* The command string itself. */
 886              		.loc 1 574 59 is_stmt 0 view .LVU207
 887 0046 01AA     		add	r2, sp, #4
 888 0048 1846     		mov	r0, r3
 889              	.LVL67:
 574:xiagb/bottom/cli.cpp ****                         pcCommandString,        /* The command string itself. */
 890              		.loc 1 574 59 view .LVU208
 891 004a FFF7FEFF 		bl	_ZN5xiagb15parserNamespace12cliNamespace24FreeRTOS_CLIGetParameterEPKcmPl
 892              	.LVL68:
 580:xiagb/bottom/cli.cpp ****                     {
 893              		.loc 1 580 21 is_stmt 1 view .LVU209
 894              	.LBB26:
 895 004e 0646     		mov	r6, r0
 896 0050 68B3     		cbz	r0, .L60
 583:xiagb/bottom/cli.cpp ****                         sprintf(pcWriteBuffer, "%d: ", (int)uxParameterNumber);
 897              		.loc 1 583 25 view .LVU210
 583:xiagb/bottom/cli.cpp ****                         sprintf(pcWriteBuffer, "%d: ", (int)uxParameterNumber);
 898              		.loc 1 583 31 is_stmt 0 view .LVU211
 899 0052 2A46     		mov	r2, r5
 900 0054 0021     		movs	r1, #0
 901 0056 2046     		mov	r0, r4
 902              	.LVL69:
 583:xiagb/bottom/cli.cpp ****                         sprintf(pcWriteBuffer, "%d: ", (int)uxParameterNumber);
 903              		.loc 1 583 31 view .LVU212
 904 0058 FFF7FEFF 		bl	memset
 905              	.LVL70:
 584:xiagb/bottom/cli.cpp ****                         strncat(pcWriteBuffer, (char *)pcParameter, (size_t)xParameterStringLength)
 906              		.loc 1 584 25 is_stmt 1 view .LVU213
 584:xiagb/bottom/cli.cpp ****                         strncat(pcWriteBuffer, (char *)pcParameter, (size_t)xParameterStringLength)
 907              		.loc 1 584 32 is_stmt 0 view .LVU214
 908 005c 274D     		ldr	r5, .L68
ARM GAS  C:\Users\XieFang\AppData\Local\Temp\ccBi1CPH.s 			page 34


 909              	.LVL71:
 584:xiagb/bottom/cli.cpp ****                         strncat(pcWriteBuffer, (char *)pcParameter, (size_t)xParameterStringLength)
 910              		.loc 1 584 32 view .LVU215
 911 005e 2A68     		ldr	r2, [r5]
 912 0060 2849     		ldr	r1, .L68+8
 913 0062 2046     		mov	r0, r4
 914 0064 FFF7FEFF 		bl	sprintf
 915              	.LVL72:
 585:xiagb/bottom/cli.cpp ****                         strncat(pcWriteBuffer, "\r\n", strlen("\r\n") + 1);
 916              		.loc 1 585 25 is_stmt 1 view .LVU216
 585:xiagb/bottom/cli.cpp ****                         strncat(pcWriteBuffer, "\r\n", strlen("\r\n") + 1);
 917              		.loc 1 585 32 is_stmt 0 view .LVU217
 918 0068 019A     		ldr	r2, [sp, #4]
 919 006a 3146     		mov	r1, r6
 920 006c 2046     		mov	r0, r4
 921 006e FFF7FEFF 		bl	strncat
 922              	.LVL73:
 586:xiagb/bottom/cli.cpp **** 
 923              		.loc 1 586 25 is_stmt 1 view .LVU218
 586:xiagb/bottom/cli.cpp **** 
 924              		.loc 1 586 32 is_stmt 0 view .LVU219
 925 0072 2046     		mov	r0, r4
 926 0074 FFF7FEFF 		bl	strlen
 927              	.LVL74:
 928 0078 0346     		mov	r3, r0
 929 007a 2118     		adds	r1, r4, r0
 930 007c 224A     		ldr	r2, .L68+12
 931 007e 1088     		ldrh	r0, [r2]	@ unaligned
 932 0080 9278     		ldrb	r2, [r2, #2]	@ zero_extendqisi2
 933 0082 E052     		strh	r0, [r4, r3]	@ unaligned
 934 0084 8A70     		strb	r2, [r1, #2]
 589:xiagb/bottom/cli.cpp ****                         uxParameterNumber++;
 935              		.loc 1 589 25 is_stmt 1 view .LVU220
 936              	.LVL75:
 590:xiagb/bottom/cli.cpp **** 
 937              		.loc 1 590 25 view .LVU221
 590:xiagb/bottom/cli.cpp **** 
 938              		.loc 1 590 42 is_stmt 0 view .LVU222
 939 0086 2B68     		ldr	r3, [r5]
 940 0088 0133     		adds	r3, r3, #1
 941 008a 2B60     		str	r3, [r5]
 592:xiagb/bottom/cli.cpp ****                         {
 942              		.loc 1 592 25 is_stmt 1 view .LVU223
 592:xiagb/bottom/cli.cpp ****                         {
 943              		.loc 1 592 42 is_stmt 0 view .LVU224
 944 008c 1F4B     		ldr	r3, .L68+16
 945 008e 1B68     		ldr	r3, [r3]
 592:xiagb/bottom/cli.cpp ****                         {
 946              		.loc 1 592 25 view .LVU225
 947 0090 002B     		cmp	r3, #0
 948 0092 30D0     		beq	.L64
 595:xiagb/bottom/cli.cpp ****                             count++;
 949              		.loc 1 595 29 is_stmt 1 view .LVU226
 595:xiagb/bottom/cli.cpp ****                             count++;
 950              		.loc 1 595 39 is_stmt 0 view .LVU227
 951 0094 1E4C     		ldr	r4, .L68+20
 952              	.LVL76:
ARM GAS  C:\Users\XieFang\AppData\Local\Temp\ccBi1CPH.s 			page 35


 595:xiagb/bottom/cli.cpp ****                             count++;
 953              		.loc 1 595 39 view .LVU228
 954 0096 2578     		ldrb	r5, [r4]	@ zero_extendqisi2
 595:xiagb/bottom/cli.cpp ****                             count++;
 955              		.loc 1 595 52 view .LVU229
 956 0098 3046     		mov	r0, r6
 957 009a FFF7FEFF 		bl	atoi
 958              	.LVL77:
 595:xiagb/bottom/cli.cpp ****                             count++;
 959              		.loc 1 595 46 view .LVU230
 960 009e 1D4B     		ldr	r3, .L68+24
 961 00a0 43F82500 		str	r0, [r3, r5, lsl #2]
 596:xiagb/bottom/cli.cpp ****                             // osMessageQueuePut(echoDataQueue, &buffer, 0, osWaitForever);
 962              		.loc 1 596 29 is_stmt 1 view .LVU231
 596:xiagb/bottom/cli.cpp ****                             // osMessageQueuePut(echoDataQueue, &buffer, 0, osWaitForever);
 963              		.loc 1 596 34 is_stmt 0 view .LVU232
 964 00a4 2378     		ldrb	r3, [r4]	@ zero_extendqisi2
 965 00a6 0133     		adds	r3, r3, #1
 966 00a8 2370     		strb	r3, [r4]
 589:xiagb/bottom/cli.cpp ****                         uxParameterNumber++;
 967              		.loc 1 589 33 view .LVU233
 968 00aa 0120     		movs	r0, #1
 969 00ac C0E7     		b	.L59
 970              	.LVL78:
 971              	.L60:
 972              	.LBB27:
 604:xiagb/bottom/cli.cpp **** 
 973              		.loc 1 604 25 is_stmt 1 view .LVU234
 604:xiagb/bottom/cli.cpp **** 
 974              		.loc 1 604 42 is_stmt 0 view .LVU235
 975 00ae 0023     		movs	r3, #0
 976 00b0 2370     		strb	r3, [r4]
 607:xiagb/bottom/cli.cpp **** 
 977              		.loc 1 607 25 is_stmt 1 view .LVU236
 978              	.LVL79:
 609:xiagb/bottom/cli.cpp ****                         {
 979              		.loc 1 609 25 view .LVU237
 980              	.LBB28:
 609:xiagb/bottom/cli.cpp ****                         {
 981              		.loc 1 609 42 is_stmt 0 view .LVU238
 982 00b2 164B     		ldr	r3, .L68+16
 983 00b4 1868     		ldr	r0, [r3]
 984              	.LVL80:
 609:xiagb/bottom/cli.cpp ****                         {
 985              		.loc 1 609 25 view .LVU239
 986 00b6 D0B1     		cbz	r0, .L61
 987              	.LBB29:
 613:xiagb/bottom/cli.cpp ****                             for (uint8_t i = 0; i < count; i++)
 988              		.loc 1 613 29 is_stmt 1 view .LVU240
 613:xiagb/bottom/cli.cpp ****                             for (uint8_t i = 0; i < count; i++)
 989              		.loc 1 613 46 is_stmt 0 view .LVU241
 990 00b8 4FF0FF33 		mov	r3, #-1
 991 00bc 0022     		movs	r2, #0
 992 00be 1449     		ldr	r1, .L68+20
 993 00c0 FFF7FEFF 		bl	osMessageQueuePut
 994              	.LVL81:
 995              	.LBB30:
ARM GAS  C:\Users\XieFang\AppData\Local\Temp\ccBi1CPH.s 			page 36


 614:xiagb/bottom/cli.cpp ****                                 osMessageQueuePut(echoDataQueue, &argBuffer[i], 0, osWaitForever);
 996              		.loc 1 614 42 view .LVU242
 997 00c4 0024     		movs	r4, #0
 998              	.LVL82:
 999              	.L63:
 614:xiagb/bottom/cli.cpp ****                                 osMessageQueuePut(echoDataQueue, &argBuffer[i], 0, osWaitForever);
 1000              		.loc 1 614 51 is_stmt 1 discriminator 1 view .LVU243
 1001 00c6 124B     		ldr	r3, .L68+20
 1002 00c8 1B78     		ldrb	r3, [r3]	@ zero_extendqisi2
 1003 00ca A342     		cmp	r3, r4
 1004 00cc 0CD9     		bls	.L62
 615:xiagb/bottom/cli.cpp ****                             count = 0;
 1005              		.loc 1 615 33 view .LVU244
 615:xiagb/bottom/cli.cpp ****                             count = 0;
 1006              		.loc 1 615 50 is_stmt 0 view .LVU245
 1007 00ce 4FF0FF33 		mov	r3, #-1
 1008 00d2 0022     		movs	r2, #0
 1009 00d4 0F49     		ldr	r1, .L68+24
 1010 00d6 01EB8401 		add	r1, r1, r4, lsl #2
 1011 00da 0C48     		ldr	r0, .L68+16
 1012 00dc 0068     		ldr	r0, [r0]
 1013 00de FFF7FEFF 		bl	osMessageQueuePut
 1014              	.LVL83:
 614:xiagb/bottom/cli.cpp ****                                 osMessageQueuePut(echoDataQueue, &argBuffer[i], 0, osWaitForever);
 1015              		.loc 1 614 29 is_stmt 1 view .LVU246
 1016 00e2 0134     		adds	r4, r4, #1
 1017              	.LVL84:
 614:xiagb/bottom/cli.cpp ****                                 osMessageQueuePut(echoDataQueue, &argBuffer[i], 0, osWaitForever);
 1018              		.loc 1 614 29 is_stmt 0 view .LVU247
 1019 00e4 E4B2     		uxtb	r4, r4
 1020              	.LVL85:
 614:xiagb/bottom/cli.cpp ****                                 osMessageQueuePut(echoDataQueue, &argBuffer[i], 0, osWaitForever);
 1021              		.loc 1 614 29 view .LVU248
 1022 00e6 EEE7     		b	.L63
 1023              	.L62:
 614:xiagb/bottom/cli.cpp ****                                 osMessageQueuePut(echoDataQueue, &argBuffer[i], 0, osWaitForever);
 1024              		.loc 1 614 29 view .LVU249
 1025              	.LBE30:
 616:xiagb/bottom/cli.cpp ****                         }
 1026              		.loc 1 616 29 is_stmt 1 view .LVU250
 616:xiagb/bottom/cli.cpp ****                         }
 1027              		.loc 1 616 35 is_stmt 0 view .LVU251
 1028 00e8 094B     		ldr	r3, .L68+20
 1029 00ea 0022     		movs	r2, #0
 1030 00ec 1A70     		strb	r2, [r3]
 1031              	.LVL86:
 1032              	.L61:
 616:xiagb/bottom/cli.cpp ****                         }
 1033              		.loc 1 616 35 view .LVU252
 1034              	.LBE29:
 1035              	.LBE28:
 620:xiagb/bottom/cli.cpp ****                     }
 1036              		.loc 1 620 25 is_stmt 1 view .LVU253
 620:xiagb/bottom/cli.cpp ****                     }
 1037              		.loc 1 620 43 is_stmt 0 view .LVU254
 1038 00ee 0020     		movs	r0, #0
 1039 00f0 024B     		ldr	r3, .L68
ARM GAS  C:\Users\XieFang\AppData\Local\Temp\ccBi1CPH.s 			page 37


 1040 00f2 1860     		str	r0, [r3]
 1041 00f4 9CE7     		b	.L59
 1042              	.LVL87:
 1043              	.L64:
 620:xiagb/bottom/cli.cpp ****                     }
 1044              		.loc 1 620 43 view .LVU255
 1045              	.LBE27:
 589:xiagb/bottom/cli.cpp ****                         uxParameterNumber++;
 1046              		.loc 1 589 33 view .LVU256
 1047 00f6 0120     		movs	r0, #1
 1048 00f8 9AE7     		b	.L59
 1049              	.L69:
 1050 00fa 00BF     		.align	2
 1051              	.L68:
 1052 00fc 00000000 		.word	.LANCHOR4
 1053 0100 00000000 		.word	.LC0
 1054 0104 18000000 		.word	.LC1
 1055 0108 20000000 		.word	.LC2
 1056 010c 00000000 		.word	.LANCHOR2
 1057 0110 00000000 		.word	.LANCHOR5
 1058 0114 00000000 		.word	.LANCHOR6
 1059              	.LBE26:
 1060              	.LBE25:
 1061              	.LBE33:
 1062              		.cfi_endproc
 1063              	.LFE317:
 1064              		.fnend
 1066              		.section	.text._ZN5xiagb15parserNamespace12cliNamespace24prvGetNumberOfParametersEPKc,"ax",%progbi
 1067              		.align	1
 1068              		.global	_ZN5xiagb15parserNamespace12cliNamespace24prvGetNumberOfParametersEPKc
 1069              		.syntax unified
 1070              		.thumb
 1071              		.thumb_func
 1072              		.fpu softvfp
 1074              	_ZN5xiagb15parserNamespace12cliNamespace24prvGetNumberOfParametersEPKc:
 1075              		.fnstart
 1076              	.LVL88:
 1077              	.LFB313:
 417:xiagb/bottom/cli.cpp ****                 int8_t cParameters = 0;
 1078              		.loc 1 417 13 is_stmt 1 view -0
 1079              		.cfi_startproc
 1080              		@ args = 0, pretend = 0, frame = 0
 1081              		@ frame_needed = 0, uses_anonymous_args = 0
 1082              		@ link register save eliminated.
 417:xiagb/bottom/cli.cpp ****                 int8_t cParameters = 0;
 1083              		.loc 1 417 13 is_stmt 0 view .LVU258
 1084 0000 0346     		mov	r3, r0
 418:xiagb/bottom/cli.cpp ****                 BaseType_t xLastCharacterWasSpace = pdFALSE;
 1085              		.loc 1 418 17 is_stmt 1 view .LVU259
 1086              	.LVL89:
 419:xiagb/bottom/cli.cpp **** 
 1087              		.loc 1 419 17 view .LVU260
 419:xiagb/bottom/cli.cpp **** 
 1088              		.loc 1 419 28 is_stmt 0 view .LVU261
 1089 0002 0021     		movs	r1, #0
 418:xiagb/bottom/cli.cpp ****                 BaseType_t xLastCharacterWasSpace = pdFALSE;
 1090              		.loc 1 418 24 view .LVU262
ARM GAS  C:\Users\XieFang\AppData\Local\Temp\ccBi1CPH.s 			page 38


 1091 0004 0846     		mov	r0, r1
 1092              	.LVL90:
 418:xiagb/bottom/cli.cpp ****                 BaseType_t xLastCharacterWasSpace = pdFALSE;
 1093              		.loc 1 418 24 view .LVU263
 1094 0006 04E0     		b	.L73
 1095              	.LVL91:
 1096              	.L76:
 426:xiagb/bottom/cli.cpp ****                         {
 1097              		.loc 1 426 25 is_stmt 1 view .LVU264
 1098 0008 11B9     		cbnz	r1, .L72
 428:xiagb/bottom/cli.cpp ****                             xLastCharacterWasSpace = pdTRUE;
 1099              		.loc 1 428 29 view .LVU265
 428:xiagb/bottom/cli.cpp ****                             xLastCharacterWasSpace = pdTRUE;
 1100              		.loc 1 428 40 is_stmt 0 view .LVU266
 1101 000a 0130     		adds	r0, r0, #1
 1102              	.LVL92:
 428:xiagb/bottom/cli.cpp ****                             xLastCharacterWasSpace = pdTRUE;
 1103              		.loc 1 428 40 view .LVU267
 1104 000c 40B2     		sxtb	r0, r0
 1105              	.LVL93:
 429:xiagb/bottom/cli.cpp ****                         }
 1106              		.loc 1 429 29 is_stmt 1 view .LVU268
 429:xiagb/bottom/cli.cpp ****                         }
 1107              		.loc 1 429 52 is_stmt 0 view .LVU269
 1108 000e 0121     		movs	r1, #1
 1109              	.LVL94:
 1110              	.L72:
 437:xiagb/bottom/cli.cpp ****                 }
 1111              		.loc 1 437 21 is_stmt 1 view .LVU270
 437:xiagb/bottom/cli.cpp ****                 }
 1112              		.loc 1 437 36 is_stmt 0 view .LVU271
 1113 0010 0133     		adds	r3, r3, #1
 1114              	.LVL95:
 1115              	.L73:
 422:xiagb/bottom/cli.cpp ****                 {
 1116              		.loc 1 422 17 is_stmt 1 view .LVU272
 422:xiagb/bottom/cli.cpp ****                 {
 1117              		.loc 1 422 41 view .LVU273
 422:xiagb/bottom/cli.cpp ****                 {
 1118              		.loc 1 422 24 is_stmt 0 view .LVU274
 1119 0012 1A78     		ldrb	r2, [r3]	@ zero_extendqisi2
 422:xiagb/bottom/cli.cpp ****                 {
 1120              		.loc 1 422 41 view .LVU275
 1121 0014 1AB1     		cbz	r2, .L71
 424:xiagb/bottom/cli.cpp ****                     {
 1122              		.loc 1 424 21 is_stmt 1 view .LVU276
 1123 0016 202A     		cmp	r2, #32
 1124 0018 F6D0     		beq	.L76
 434:xiagb/bottom/cli.cpp ****                     }
 1125              		.loc 1 434 48 is_stmt 0 view .LVU277
 1126 001a 0021     		movs	r1, #0
 1127              	.LVL96:
 434:xiagb/bottom/cli.cpp ****                     }
 1128              		.loc 1 434 48 view .LVU278
 1129 001c F8E7     		b	.L72
 1130              	.LVL97:
 1131              	.L71:
ARM GAS  C:\Users\XieFang\AppData\Local\Temp\ccBi1CPH.s 			page 39


 442:xiagb/bottom/cli.cpp ****                 {
 1132              		.loc 1 442 17 is_stmt 1 view .LVU279
 1133 001e 01B9     		cbnz	r1, .L77
 1134              	.L74:
 449:xiagb/bottom/cli.cpp ****             }
 1135              		.loc 1 449 17 view .LVU280
 450:xiagb/bottom/cli.cpp **** 
 1136              		.loc 1 450 13 is_stmt 0 view .LVU281
 1137 0020 7047     		bx	lr
 1138              	.L77:
 444:xiagb/bottom/cli.cpp ****                 }
 1139              		.loc 1 444 21 is_stmt 1 view .LVU282
 444:xiagb/bottom/cli.cpp ****                 }
 1140              		.loc 1 444 32 is_stmt 0 view .LVU283
 1141 0022 0138     		subs	r0, r0, #1
 1142              	.LVL98:
 444:xiagb/bottom/cli.cpp ****                 }
 1143              		.loc 1 444 32 view .LVU284
 1144 0024 40B2     		sxtb	r0, r0
 1145              	.LVL99:
 444:xiagb/bottom/cli.cpp ****                 }
 1146              		.loc 1 444 32 view .LVU285
 1147 0026 FBE7     		b	.L74
 1148              		.cfi_endproc
 1149              	.LFE313:
 1150              		.cantunwind
 1151              		.fnend
 1153              		.section	.rodata._ZN5xiagb15parserNamespace12cliNamespace26FreeRTOS_CLIProcessCommandEPKcPcjPKNS1_
 1154              		.align	2
 1155              	.LC3:
 1156 0000 496E636F 		.ascii	"Incorrect command parameter(s).  Enter \"help\" to "
 1156      72726563 
 1156      7420636F 
 1156      6D6D616E 
 1156      64207061 
 1157 0031 76696577 		.ascii	"view a list of available commands.\015\012\015\012\000"
 1157      2061206C 
 1157      69737420 
 1157      6F662061 
 1157      7661696C 
 1158              		.align	2
 1159              	.LC4:
 1160 0058 436F6D6D 		.ascii	"Command not recognised.  Enter 'help' to view a lis"
 1160      616E6420 
 1160      6E6F7420 
 1160      7265636F 
 1160      676E6973 
 1161 008b 74206F66 		.ascii	"t of available commands.\015\012\015\012\000"
 1161      20617661 
 1161      696C6162 
 1161      6C652063 
 1161      6F6D6D61 
 1162              		.section	.text._ZN5xiagb15parserNamespace12cliNamespace26FreeRTOS_CLIProcessCommandEPKcPcjPKNS1_8c
 1163              		.align	1
 1164              		.global	_ZN5xiagb15parserNamespace12cliNamespace26FreeRTOS_CLIProcessCommandEPKcPcjPKNS1_8cmd_list
 1165              		.syntax unified
 1166              		.thumb
ARM GAS  C:\Users\XieFang\AppData\Local\Temp\ccBi1CPH.s 			page 40


 1167              		.thumb_func
 1168              		.fpu softvfp
 1170              	_ZN5xiagb15parserNamespace12cliNamespace26FreeRTOS_CLIProcessCommandEPKcPcjPKNS1_8cmd_listE:
 1171              		.fnstart
 1172              	.LVL100:
 1173              	.LFB311:
 283:xiagb/bottom/cli.cpp ****                 bool xReturn = pdTRUE;
 1174              		.loc 1 283 13 is_stmt 1 view -0
 1175              		.cfi_startproc
 1176              		@ args = 0, pretend = 0, frame = 0
 1177              		@ frame_needed = 0, uses_anonymous_args = 0
 283:xiagb/bottom/cli.cpp ****                 bool xReturn = pdTRUE;
 1178              		.loc 1 283 13 is_stmt 0 view .LVU287
 1179 0000 2DE9F843 		push	{r3, r4, r5, r6, r7, r8, r9, lr}
 1180              		.save {r3, r4, r5, r6, r7, r8, r9, lr}
 1181              	.LCFI20:
 1182              		.cfi_def_cfa_offset 32
 1183              		.cfi_offset 3, -32
 1184              		.cfi_offset 4, -28
 1185              		.cfi_offset 5, -24
 1186              		.cfi_offset 6, -20
 1187              		.cfi_offset 7, -16
 1188              		.cfi_offset 8, -12
 1189              		.cfi_offset 9, -8
 1190              		.cfi_offset 14, -4
 1191 0004 0546     		mov	r5, r0
 1192 0006 8846     		mov	r8, r1
 1193 0008 9146     		mov	r9, r2
 284:xiagb/bottom/cli.cpp ****                 const char *pcRegisteredCommandString;
 1194              		.loc 1 284 17 is_stmt 1 view .LVU288
 1195              	.LVL101:
 285:xiagb/bottom/cli.cpp ****                 size_t xCommandStringLength;
 1196              		.loc 1 285 17 view .LVU289
 286:xiagb/bottom/cli.cpp **** 
 1197              		.loc 1 286 17 view .LVU290
 291:xiagb/bottom/cli.cpp ****                 {
 1198              		.loc 1 291 17 view .LVU291
 1199 000a 7BB1     		cbz	r3, .L91
 1200 000c 1C46     		mov	r4, r3
 284:xiagb/bottom/cli.cpp ****                 const char *pcRegisteredCommandString;
 1201              		.loc 1 284 22 is_stmt 0 view .LVU292
 1202 000e 0126     		movs	r6, #1
 1203              	.LVL102:
 1204              	.L79:
 329:xiagb/bottom/cli.cpp ****                 {
 1205              		.loc 1 329 17 is_stmt 1 view .LVU293
 1206 0010 04B1     		cbz	r4, .L83
 329:xiagb/bottom/cli.cpp ****                 {
 1207              		.loc 1 329 41 is_stmt 0 discriminator 1 view .LVU294
 1208 0012 8EB3     		cbz	r6, .L92
 1209              	.L83:
 335:xiagb/bottom/cli.cpp ****                 {
 1210              		.loc 1 335 22 is_stmt 1 view .LVU295
 1211 0014 002C     		cmp	r4, #0
 1212 0016 35D0     		beq	.L85
 338:xiagb/bottom/cli.cpp **** 
 1213              		.loc 1 338 21 view .LVU296
ARM GAS  C:\Users\XieFang\AppData\Local\Temp\ccBi1CPH.s 			page 41


 338:xiagb/bottom/cli.cpp **** 
 1214              		.loc 1 338 42 is_stmt 0 view .LVU297
 1215 0018 2368     		ldr	r3, [r4]
 338:xiagb/bottom/cli.cpp **** 
 1216              		.loc 1 338 67 view .LVU298
 1217 001a 9B68     		ldr	r3, [r3, #8]
 338:xiagb/bottom/cli.cpp **** 
 1218              		.loc 1 338 87 view .LVU299
 1219 001c 2A46     		mov	r2, r5
 1220 001e 4946     		mov	r1, r9
 1221 0020 4046     		mov	r0, r8
 1222 0022 9847     		blx	r3
 1223              	.LVL103:
 1224 0024 0646     		mov	r6, r0
 1225              	.LVL104:
 343:xiagb/bottom/cli.cpp ****                     {
 1226              		.loc 1 343 21 is_stmt 1 view .LVU300
 1227              	.L84:
 355:xiagb/bottom/cli.cpp ****             }
 1228              		.loc 1 355 17 view .LVU301
 356:xiagb/bottom/cli.cpp **** 
 1229              		.loc 1 356 13 is_stmt 0 view .LVU302
 1230 0026 3046     		mov	r0, r6
 1231 0028 BDE8F883 		pop	{r3, r4, r5, r6, r7, r8, r9, pc}
 1232              	.LVL105:
 1233              	.L91:
 294:xiagb/bottom/cli.cpp ****                     {
 1234              		.loc 1 294 36 view .LVU303
 1235 002c 194C     		ldr	r4, .L96
 1236 002e 05E0     		b	.L82
 1237              	.LVL106:
 1238              	.L80:
 308:xiagb/bottom/cli.cpp ****                             {
 1239              		.loc 1 308 29 is_stmt 1 view .LVU304
 308:xiagb/bottom/cli.cpp ****                             {
 1240              		.loc 1 308 40 is_stmt 0 view .LVU305
 1241 0030 3146     		mov	r1, r6
 1242 0032 2846     		mov	r0, r5
 1243              	.LVL107:
 308:xiagb/bottom/cli.cpp ****                             {
 1244              		.loc 1 308 40 view .LVU306
 1245 0034 FFF7FEFF 		bl	strncmp
 1246              	.LVL108:
 308:xiagb/bottom/cli.cpp ****                             {
 1247              		.loc 1 308 29 view .LVU307
 1248 0038 68B1     		cbz	r0, .L93
 1249              	.L81:
 294:xiagb/bottom/cli.cpp ****                     {
 1250              		.loc 1 294 21 is_stmt 1 discriminator 2 view .LVU308
 294:xiagb/bottom/cli.cpp ****                     {
 1251              		.loc 1 294 89 is_stmt 0 discriminator 2 view .LVU309
 1252 003a 6468     		ldr	r4, [r4, #4]
 1253              	.LVL109:
 1254              	.L82:
 294:xiagb/bottom/cli.cpp ****                     {
 1255              		.loc 1 294 70 is_stmt 1 discriminator 1 view .LVU310
 1256 003c D4B1     		cbz	r4, .L87
ARM GAS  C:\Users\XieFang\AppData\Local\Temp\ccBi1CPH.s 			page 42


 297:xiagb/bottom/cli.cpp ****                         //ËØ•Â≠óÁ¨¶‰∏≤ÈïøÂ∫¶
 1257              		.loc 1 297 25 view .LVU311
 297:xiagb/bottom/cli.cpp ****                         //ËØ•Â≠óÁ¨¶‰∏≤ÈïøÂ∫¶
 1258              		.loc 1 297 64 is_stmt 0 view .LVU312
 1259 003e 2768     		ldr	r7, [r4]
 297:xiagb/bottom/cli.cpp ****                         //ËØ•Â≠óÁ¨¶‰∏≤ÈïøÂ∫¶
 1260              		.loc 1 297 51 view .LVU313
 1261 0040 3E68     		ldr	r6, [r7]
 1262              	.LVL110:
 299:xiagb/bottom/cli.cpp **** 
 1263              		.loc 1 299 25 is_stmt 1 view .LVU314
 299:xiagb/bottom/cli.cpp **** 
 1264              		.loc 1 299 54 is_stmt 0 view .LVU315
 1265 0042 3046     		mov	r0, r6
 1266 0044 FFF7FEFF 		bl	strlen
 1267              	.LVL111:
 1268 0048 0246     		mov	r2, r0
 1269              	.LVL112:
 305:xiagb/bottom/cli.cpp ****                         {
 1270              		.loc 1 305 25 is_stmt 1 view .LVU316
 305:xiagb/bottom/cli.cpp ****                         {
 1271              		.loc 1 305 65 is_stmt 0 view .LVU317
 1272 004a 2B5C     		ldrb	r3, [r5, r0]	@ zero_extendqisi2
 305:xiagb/bottom/cli.cpp ****                         {
 1273              		.loc 1 305 25 view .LVU318
 1274 004c 202B     		cmp	r3, #32
 1275 004e EFD0     		beq	.L80
 305:xiagb/bottom/cli.cpp ****                         {
 1276              		.loc 1 305 75 discriminator 1 view .LVU319
 1277 0050 002B     		cmp	r3, #0
 1278 0052 F2D1     		bne	.L81
 1279 0054 ECE7     		b	.L80
 1280              	.LVL113:
 1281              	.L93:
 314:xiagb/bottom/cli.cpp ****                                 {
 1282              		.loc 1 314 33 is_stmt 1 view .LVU320
 314:xiagb/bottom/cli.cpp ****                                 {
 1283              		.loc 1 314 73 is_stmt 0 view .LVU321
 1284 0056 97F90C60 		ldrsb	r6, [r7, #12]
 1285              	.LVL114:
 314:xiagb/bottom/cli.cpp ****                                 {
 1286              		.loc 1 314 33 view .LVU322
 1287 005a 002E     		cmp	r6, #0
 1288 005c 01DA     		bge	.L94
 284:xiagb/bottom/cli.cpp ****                 const char *pcRegisteredCommandString;
 1289              		.loc 1 284 22 view .LVU323
 1290 005e 0126     		movs	r6, #1
 1291 0060 D6E7     		b	.L79
 1292              	.L94:
 316:xiagb/bottom/cli.cpp ****                                     {
 1293              		.loc 1 316 37 is_stmt 1 view .LVU324
 316:xiagb/bottom/cli.cpp ****                                     {
 1294              		.loc 1 316 65 is_stmt 0 view .LVU325
 1295 0062 2846     		mov	r0, r5
 1296 0064 FFF7FEFF 		bl	_ZN5xiagb15parserNamespace12cliNamespace24prvGetNumberOfParametersEPKc
 1297              	.LVL115:
 316:xiagb/bottom/cli.cpp ****                                     {
ARM GAS  C:\Users\XieFang\AppData\Local\Temp\ccBi1CPH.s 			page 43


 1298              		.loc 1 316 37 view .LVU326
 1299 0068 8642     		cmp	r6, r0
 1300 006a 01D0     		beq	.L95
 319:xiagb/bottom/cli.cpp ****                                     }
 1301              		.loc 1 319 49 view .LVU327
 1302 006c 0026     		movs	r6, #0
 1303 006e CFE7     		b	.L79
 1304              	.L95:
 284:xiagb/bottom/cli.cpp ****                 const char *pcRegisteredCommandString;
 1305              		.loc 1 284 22 view .LVU328
 1306 0070 0126     		movs	r6, #1
 1307 0072 CDE7     		b	.L79
 1308              	.L87:
 284:xiagb/bottom/cli.cpp ****                 const char *pcRegisteredCommandString;
 1309              		.loc 1 284 22 view .LVU329
 1310 0074 0126     		movs	r6, #1
 1311 0076 CBE7     		b	.L79
 1312              	.LVL116:
 1313              	.L92:
 332:xiagb/bottom/cli.cpp ****                     pxCommand = NULL;
 1314              		.loc 1 332 21 is_stmt 1 view .LVU330
 332:xiagb/bottom/cli.cpp ****                     pxCommand = NULL;
 1315              		.loc 1 332 28 is_stmt 0 view .LVU331
 1316 0078 4A46     		mov	r2, r9
 1317 007a 0749     		ldr	r1, .L96+4
 1318 007c 4046     		mov	r0, r8
 1319 007e FFF7FEFF 		bl	strncpy
 1320              	.LVL117:
 333:xiagb/bottom/cli.cpp ****                 }
 1321              		.loc 1 333 21 is_stmt 1 view .LVU332
 333:xiagb/bottom/cli.cpp ****                 }
 1322              		.loc 1 333 31 is_stmt 0 view .LVU333
 1323 0082 D0E7     		b	.L84
 1324              	.LVL118:
 1325              	.L85:
 351:xiagb/bottom/cli.cpp ****                     xReturn = pdFALSE;
 1326              		.loc 1 351 21 is_stmt 1 view .LVU334
 351:xiagb/bottom/cli.cpp ****                     xReturn = pdFALSE;
 1327              		.loc 1 351 28 is_stmt 0 view .LVU335
 1328 0084 4A46     		mov	r2, r9
 1329 0086 0549     		ldr	r1, .L96+8
 1330 0088 4046     		mov	r0, r8
 1331 008a FFF7FEFF 		bl	strncpy
 1332              	.LVL119:
 352:xiagb/bottom/cli.cpp ****                 }
 1333              		.loc 1 352 21 is_stmt 1 view .LVU336
 352:xiagb/bottom/cli.cpp ****                 }
 1334              		.loc 1 352 29 is_stmt 0 view .LVU337
 1335 008e 0026     		movs	r6, #0
 1336 0090 C9E7     		b	.L84
 1337              	.L97:
 1338 0092 00BF     		.align	2
 1339              	.L96:
 1340 0094 00000000 		.word	.LANCHOR1
 1341 0098 00000000 		.word	.LC3
 1342 009c 58000000 		.word	.LC4
 1343              		.cfi_endproc
ARM GAS  C:\Users\XieFang\AppData\Local\Temp\ccBi1CPH.s 			page 44


 1344              	.LFE311:
 1345              		.fnend
 1347              		.section	.rodata._ZN5xiagb15parserNamespace12cliNamespace8cliClass4loopEv.str1.4,"aMS",%progbits,1
 1348              		.align	2
 1349              	.LC5:
 1350 0000 0D0A5B50 		.ascii	"\015\012[Press ENTER to execute the previous comman"
 1350      72657373 
 1350      20454E54 
 1350      45522074 
 1350      6F206578 
 1351 002d 64206167 		.ascii	"d again]\015\012>\000"
 1351      61696E5D 
 1351      0D0A3E00 
 1352              		.section	.text._ZN5xiagb15parserNamespace12cliNamespace8cliClass4loopEv,"ax",%progbits
 1353              		.align	1
 1354              		.global	_ZN5xiagb15parserNamespace12cliNamespace8cliClass4loopEv
 1355              		.syntax unified
 1356              		.thumb
 1357              		.thumb_func
 1358              		.fpu softvfp
 1360              	_ZN5xiagb15parserNamespace12cliNamespace8cliClass4loopEv:
 1361              		.fnstart
 1362              	.LVL120:
 1363              	.LFB309:
 158:xiagb/bottom/cli.cpp ****                 uint8_t buffer;
 1364              		.loc 1 158 13 is_stmt 1 view -0
 1365              		.cfi_startproc
 1366              		@ args = 0, pretend = 0, frame = 8
 1367              		@ frame_needed = 0, uses_anonymous_args = 0
 158:xiagb/bottom/cli.cpp ****                 uint8_t buffer;
 1368              		.loc 1 158 13 is_stmt 0 view .LVU339
 1369 0000 30B5     		push	{r4, r5, lr}
 1370              		.save {r4, r5, lr}
 1371              	.LCFI21:
 1372              		.cfi_def_cfa_offset 12
 1373              		.cfi_offset 4, -12
 1374              		.cfi_offset 5, -8
 1375              		.cfi_offset 14, -4
 1376              		.pad #12
 1377 0002 83B0     		sub	sp, sp, #12
 1378              	.LCFI22:
 1379              		.cfi_def_cfa_offset 24
 1380 0004 0446     		mov	r4, r0
 1381 0006 21E0     		b	.L99
 1382              	.LVL121:
 1383              	.L101:
 1384              	.LBB34:
 1385              	.LBB35:
 1386              	.LBB36:
 169:xiagb/bottom/cli.cpp **** 
 1387              		.loc 1 169 25 is_stmt 1 view .LVU340
 169:xiagb/bottom/cli.cpp **** 
 1388              		.loc 1 169 34 is_stmt 0 view .LVU341
 1389 0008 2C49     		ldr	r1, .L110
 1390 000a 2046     		mov	r0, r4
 1391 000c FFF7FEFF 		bl	_ZN5xiagb15parserNamespace12cliNamespace8cliClass9outputStrEPh
 1392              	.LVL122:
ARM GAS  C:\Users\XieFang\AppData\Local\Temp\ccBi1CPH.s 			page 45


 173:xiagb/bottom/cli.cpp ****                         {
 1393              		.loc 1 173 25 is_stmt 1 view .LVU342
 173:xiagb/bottom/cli.cpp ****                         {
 1394              		.loc 1 173 29 is_stmt 0 view .LVU343
 1395 0010 238B     		ldrh	r3, [r4, #24]
 173:xiagb/bottom/cli.cpp ****                         {
 1396              		.loc 1 173 25 view .LVU344
 1397 0012 002B     		cmp	r3, #0
 1398 0014 40D0     		beq	.L109
 1399              	.L104:
 185:xiagb/bottom/cli.cpp ****                         {
 1400              		.loc 1 185 25 is_stmt 1 view .LVU345
 188:xiagb/bottom/cli.cpp **** 
 1401              		.loc 1 188 29 view .LVU346
 188:xiagb/bottom/cli.cpp **** 
 1402              		.loc 1 188 67 is_stmt 0 view .LVU347
 1403 0016 0023     		movs	r3, #0
 1404 0018 A288     		ldrh	r2, [r4, #4]
 1405 001a E169     		ldr	r1, [r4, #28]
 1406 001c 2069     		ldr	r0, [r4, #16]
 1407 001e FFF7FEFF 		bl	_ZN5xiagb15parserNamespace12cliNamespace26FreeRTOS_CLIProcessCommandEPKcPcjPKNS1_8cmd_listE
 1408              	.LVL123:
 1409 0022 0546     		mov	r5, r0
 1410              	.LVL124:
 191:xiagb/bottom/cli.cpp **** 
 1411              		.loc 1 191 29 is_stmt 1 view .LVU348
 191:xiagb/bottom/cli.cpp **** 
 1412              		.loc 1 191 38 is_stmt 0 view .LVU349
 1413 0024 E169     		ldr	r1, [r4, #28]
 1414 0026 2046     		mov	r0, r4
 1415 0028 FFF7FEFF 		bl	_ZN5xiagb15parserNamespace12cliNamespace8cliClass9outputStrEPh
 1416              	.LVL125:
 193:xiagb/bottom/cli.cpp **** 
 1417              		.loc 1 193 44 is_stmt 1 view .LVU350
 1418 002c 002D     		cmp	r5, #0
 1419 002e F2D1     		bne	.L104
 199:xiagb/bottom/cli.cpp ****                         inputBufferIndex = 0;
 1420              		.loc 1 199 25 view .LVU351
 199:xiagb/bottom/cli.cpp ****                         inputBufferIndex = 0;
 1421              		.loc 1 199 31 is_stmt 0 view .LVU352
 1422 0030 2169     		ldr	r1, [r4, #16]
 1423 0032 E069     		ldr	r0, [r4, #28]
 1424 0034 FFF7FEFF 		bl	strcpy
 1425              	.LVL126:
 200:xiagb/bottom/cli.cpp ****                         memset(inputBuffer, 0x00, inputBufferSize);
 1426              		.loc 1 200 25 is_stmt 1 view .LVU353
 200:xiagb/bottom/cli.cpp ****                         memset(inputBuffer, 0x00, inputBufferSize);
 1427              		.loc 1 200 42 is_stmt 0 view .LVU354
 1428 0038 0021     		movs	r1, #0
 1429 003a 2183     		strh	r1, [r4, #24]	@ movhi
 201:xiagb/bottom/cli.cpp **** 
 1430              		.loc 1 201 25 is_stmt 1 view .LVU355
 201:xiagb/bottom/cli.cpp **** 
 1431              		.loc 1 201 31 is_stmt 0 view .LVU356
 1432 003c 6288     		ldrh	r2, [r4, #2]
 1433 003e 2069     		ldr	r0, [r4, #16]
 1434 0040 FFF7FEFF 		bl	memset
ARM GAS  C:\Users\XieFang\AppData\Local\Temp\ccBi1CPH.s 			page 46


 1435              	.LVL127:
 203:xiagb/bottom/cli.cpp ****                     }
 1436              		.loc 1 203 25 is_stmt 1 view .LVU357
 203:xiagb/bottom/cli.cpp ****                     }
 1437              		.loc 1 203 34 is_stmt 0 view .LVU358
 1438 0044 1E49     		ldr	r1, .L110+4
 1439 0046 2046     		mov	r0, r4
 1440 0048 FFF7FEFF 		bl	_ZN5xiagb15parserNamespace12cliNamespace8cliClass9outputStrEPh
 1441              	.LVL128:
 1442              	.L99:
 203:xiagb/bottom/cli.cpp ****                     }
 1443              		.loc 1 203 34 view .LVU359
 1444              	.LBE36:
 1445              	.LBE35:
 1446              	.LBE34:
 159:xiagb/bottom/cli.cpp ****                 while (getChar(&buffer) == osOK)
 1447              		.loc 1 159 17 is_stmt 1 view .LVU360
 160:xiagb/bottom/cli.cpp ****                 {
 1448              		.loc 1 160 17 view .LVU361
 160:xiagb/bottom/cli.cpp ****                 {
 1449              		.loc 1 160 41 view .LVU362
 160:xiagb/bottom/cli.cpp ****                 {
 1450              		.loc 1 160 31 is_stmt 0 view .LVU363
 1451 004c 0DF10701 		add	r1, sp, #7
 1452 0050 2046     		mov	r0, r4
 1453 0052 FFF7FEFF 		bl	_ZN5xiagb15parserNamespace12cliNamespace8cliClass7getCharEPh
 1454              	.LVL129:
 160:xiagb/bottom/cli.cpp ****                 {
 1455              		.loc 1 160 41 view .LVU364
 1456 0056 70BB     		cbnz	r0, .L98
 1457              	.LBB39:
 163:xiagb/bottom/cli.cpp **** 
 1458              		.loc 1 163 21 is_stmt 1 view .LVU365
 163:xiagb/bottom/cli.cpp **** 
 1459              		.loc 1 163 31 is_stmt 0 view .LVU366
 1460 0058 9DF80710 		ldrb	r1, [sp, #7]	@ zero_extendqisi2
 1461 005c 2046     		mov	r0, r4
 1462 005e FFF7FEFF 		bl	_ZN5xiagb15parserNamespace12cliNamespace8cliClass10outputCharEh
 1463              	.LVL130:
 166:xiagb/bottom/cli.cpp ****                     {
 1464              		.loc 1 166 21 is_stmt 1 view .LVU367
 1465              	.LBB38:
 166:xiagb/bottom/cli.cpp ****                     {
 1466              		.loc 1 166 32 is_stmt 0 view .LVU368
 1467 0062 9DF80730 		ldrb	r3, [sp, #7]	@ zero_extendqisi2
 166:xiagb/bottom/cli.cpp ****                     {
 1468              		.loc 1 166 21 view .LVU369
 1469 0066 0A2B     		cmp	r3, #10
 1470 0068 CED0     		beq	.L101
 166:xiagb/bottom/cli.cpp ****                     {
 1471              		.loc 1 166 40 discriminator 1 view .LVU370
 1472 006a 0D2B     		cmp	r3, #13
 1473 006c CCD0     		beq	.L101
 207:xiagb/bottom/cli.cpp ****                         {
 1474              		.loc 1 207 25 is_stmt 1 view .LVU371
 1475 006e 0D2B     		cmp	r3, #13
 1476 0070 ECD0     		beq	.L99
ARM GAS  C:\Users\XieFang\AppData\Local\Temp\ccBi1CPH.s 			page 47


 211:xiagb/bottom/cli.cpp ****                         {
 1477              		.loc 1 211 30 view .LVU372
 1478 0072 082B     		cmp	r3, #8
 1479 0074 15D0     		beq	.L106
 211:xiagb/bottom/cli.cpp ****                         {
 1480              		.loc 1 211 51 is_stmt 0 discriminator 1 view .LVU373
 1481 0076 7F2B     		cmp	r3, #127
 1482 0078 13D0     		beq	.L106
 226:xiagb/bottom/cli.cpp ****                             {
 1483              		.loc 1 226 29 is_stmt 1 view .LVU374
 226:xiagb/bottom/cli.cpp ****                             {
 1484              		.loc 1 226 49 is_stmt 0 view .LVU375
 1485 007a A3F12002 		sub	r2, r3, #32
 1486 007e D2B2     		uxtb	r2, r2
 226:xiagb/bottom/cli.cpp ****                             {
 1487              		.loc 1 226 29 view .LVU376
 1488 0080 5E2A     		cmp	r2, #94
 1489 0082 E3D8     		bhi	.L99
 228:xiagb/bottom/cli.cpp ****                                 {
 1490              		.loc 1 228 33 is_stmt 1 view .LVU377
 228:xiagb/bottom/cli.cpp ****                                 {
 1491              		.loc 1 228 37 is_stmt 0 view .LVU378
 1492 0084 228B     		ldrh	r2, [r4, #24]
 228:xiagb/bottom/cli.cpp ****                                 {
 1493              		.loc 1 228 56 view .LVU379
 1494 0086 6188     		ldrh	r1, [r4, #2]
 228:xiagb/bottom/cli.cpp ****                                 {
 1495              		.loc 1 228 33 view .LVU380
 1496 0088 8A42     		cmp	r2, r1
 1497 008a DFD2     		bcs	.L99
 230:xiagb/bottom/cli.cpp ****                                     inputBufferIndex++;
 1498              		.loc 1 230 37 is_stmt 1 view .LVU381
 1499 008c 2169     		ldr	r1, [r4, #16]
 230:xiagb/bottom/cli.cpp ****                                     inputBufferIndex++;
 1500              		.loc 1 230 67 is_stmt 0 view .LVU382
 1501 008e 8B54     		strb	r3, [r1, r2]
 231:xiagb/bottom/cli.cpp ****                                 }
 1502              		.loc 1 231 37 is_stmt 1 view .LVU383
 1503 0090 238B     		ldrh	r3, [r4, #24]
 231:xiagb/bottom/cli.cpp ****                                 }
 1504              		.loc 1 231 53 is_stmt 0 view .LVU384
 1505 0092 0133     		adds	r3, r3, #1
 1506 0094 2383     		strh	r3, [r4, #24]	@ movhi
 1507 0096 D9E7     		b	.L99
 1508              	.L109:
 1509              	.LBB37:
 176:xiagb/bottom/cli.cpp ****                         }
 1510              		.loc 1 176 29 is_stmt 1 view .LVU385
 176:xiagb/bottom/cli.cpp ****                         }
 1511              		.loc 1 176 35 is_stmt 0 view .LVU386
 1512 0098 6169     		ldr	r1, [r4, #20]
 1513 009a 2069     		ldr	r0, [r4, #16]
 1514 009c FFF7FEFF 		bl	strcpy
 1515              	.LVL131:
 1516 00a0 B9E7     		b	.L104
 1517              	.L106:
 176:xiagb/bottom/cli.cpp ****                         }
ARM GAS  C:\Users\XieFang\AppData\Local\Temp\ccBi1CPH.s 			page 48


 1518              		.loc 1 176 35 view .LVU387
 1519              	.LBE37:
 215:xiagb/bottom/cli.cpp ****                             {
 1520              		.loc 1 215 29 is_stmt 1 view .LVU388
 215:xiagb/bottom/cli.cpp ****                             {
 1521              		.loc 1 215 33 is_stmt 0 view .LVU389
 1522 00a2 238B     		ldrh	r3, [r4, #24]
 215:xiagb/bottom/cli.cpp ****                             {
 1523              		.loc 1 215 29 view .LVU390
 1524 00a4 002B     		cmp	r3, #0
 1525 00a6 D1D0     		beq	.L99
 217:xiagb/bottom/cli.cpp ****                                 inputBuffer[inputBufferIndex] = '\0';
 1526              		.loc 1 217 33 is_stmt 1 view .LVU391
 217:xiagb/bottom/cli.cpp ****                                 inputBuffer[inputBufferIndex] = '\0';
 1527              		.loc 1 217 49 is_stmt 0 view .LVU392
 1528 00a8 013B     		subs	r3, r3, #1
 1529 00aa 9BB2     		uxth	r3, r3
 1530 00ac 2383     		strh	r3, [r4, #24]	@ movhi
 218:xiagb/bottom/cli.cpp ****                             }
 1531              		.loc 1 218 33 is_stmt 1 view .LVU393
 1532 00ae 2269     		ldr	r2, [r4, #16]
 218:xiagb/bottom/cli.cpp ****                             }
 1533              		.loc 1 218 63 is_stmt 0 view .LVU394
 1534 00b0 0021     		movs	r1, #0
 1535 00b2 D154     		strb	r1, [r2, r3]
 1536 00b4 CAE7     		b	.L99
 1537              	.L98:
 218:xiagb/bottom/cli.cpp ****                             }
 1538              		.loc 1 218 63 view .LVU395
 1539              	.LBE38:
 1540              	.LBE39:
 237:xiagb/bottom/cli.cpp **** 
 1541              		.loc 1 237 13 view .LVU396
 1542 00b6 03B0     		add	sp, sp, #12
 1543              	.LCFI23:
 1544              		.cfi_def_cfa_offset 12
 1545              		@ sp needed
 1546 00b8 30BD     		pop	{r4, r5, pc}
 1547              	.LVL132:
 1548              	.L111:
 237:xiagb/bottom/cli.cpp **** 
 1549              		.loc 1 237 13 view .LVU397
 1550 00ba 00BF     		.align	2
 1551              	.L110:
 1552 00bc 20000000 		.word	.LC2
 1553 00c0 00000000 		.word	.LC5
 1554              		.cfi_endproc
 1555              	.LFE309:
 1556              		.fnend
 1558              		.section	.rodata._ZN5xiagb15parserNamespace12cliNamespace19prvTaskStatsCommandEPcjPKc.str1.4,"aMS"
 1559              		.align	2
 1560              	.LC6:
 1561 0000 5461736B 		.ascii	"Task\000"
 1561      00
 1562 0005 000000   		.align	2
 1563              	.LC7:
 1564 0008 20202020 		.ascii	"     State   Priority  Stack    #\015\012**********"
ARM GAS  C:\Users\XieFang\AppData\Local\Temp\ccBi1CPH.s 			page 49


 1564      20537461 
 1564      74652020 
 1564      20507269 
 1564      6F726974 
 1565 0035 2A2A2A2A 		.ascii	"**************************************\015\012\000"
 1565      2A2A2A2A 
 1565      2A2A2A2A 
 1565      2A2A2A2A 
 1565      2A2A2A2A 
 1566              		.section	.text._ZN5xiagb15parserNamespace12cliNamespace19prvTaskStatsCommandEPcjPKc,"ax",%progbits
 1567              		.align	1
 1568              		.global	_ZN5xiagb15parserNamespace12cliNamespace19prvTaskStatsCommandEPcjPKc
 1569              		.syntax unified
 1570              		.thumb
 1571              		.thumb_func
 1572              		.fpu softvfp
 1574              	_ZN5xiagb15parserNamespace12cliNamespace19prvTaskStatsCommandEPcjPKc:
 1575              		.fnstart
 1576              	.LVL133:
 1577              	.LFB315:
 487:xiagb/bottom/cli.cpp ****                 const char *const pcHeader = "     State   Priority  Stack    #\r\n****************
 1578              		.loc 1 487 13 is_stmt 1 view -0
 1579              		.cfi_startproc
 1580              		@ args = 0, pretend = 0, frame = 0
 1581              		@ frame_needed = 0, uses_anonymous_args = 0
 488:xiagb/bottom/cli.cpp ****                 BaseType_t xSpacePadding;
 1582              		.loc 1 488 17 view .LVU399
 489:xiagb/bottom/cli.cpp **** 
 1583              		.loc 1 489 17 view .LVU400
 494:xiagb/bottom/cli.cpp ****                 (void)xWriteBufferLen;
 1584              		.loc 1 494 17 view .LVU401
 495:xiagb/bottom/cli.cpp ****                 configASSERT(pcWriteBuffer);
 1585              		.loc 1 495 17 view .LVU402
 496:xiagb/bottom/cli.cpp **** 
 1586              		.loc 1 496 17 view .LVU403
 1587 0000 60B1     		cbz	r0, .L119
 487:xiagb/bottom/cli.cpp ****                 const char *const pcHeader = "     State   Priority  Stack    #\r\n****************
 1588              		.loc 1 487 13 is_stmt 0 discriminator 2 view .LVU404
 1589 0002 10B5     		push	{r4, lr}
 1590              		.save {r4, lr}
 1591              	.LCFI24:
 1592              		.cfi_def_cfa_offset 8
 1593              		.cfi_offset 4, -8
 1594              		.cfi_offset 14, -4
 1595 0004 0446     		mov	r4, r0
 496:xiagb/bottom/cli.cpp **** 
 1596              		.loc 1 496 44 is_stmt 1 discriminator 2 view .LVU405
 499:xiagb/bottom/cli.cpp ****                 pcWriteBuffer += strlen(pcWriteBuffer);
 1597              		.loc 1 499 17 discriminator 2 view .LVU406
 499:xiagb/bottom/cli.cpp ****                 pcWriteBuffer += strlen(pcWriteBuffer);
 1598              		.loc 1 499 23 is_stmt 0 discriminator 2 view .LVU407
 1599 0006 134B     		ldr	r3, .L121
 1600 0008 1868     		ldr	r0, [r3]
 1601              	.LVL134:
 499:xiagb/bottom/cli.cpp ****                 pcWriteBuffer += strlen(pcWriteBuffer);
 1602              		.loc 1 499 23 discriminator 2 view .LVU408
 1603 000a 2060     		str	r0, [r4]	@ unaligned
ARM GAS  C:\Users\XieFang\AppData\Local\Temp\ccBi1CPH.s 			page 50


 1604 000c 1B79     		ldrb	r3, [r3, #4]	@ zero_extendqisi2
 1605 000e 2371     		strb	r3, [r4, #4]
 500:xiagb/bottom/cli.cpp **** 
 1606              		.loc 1 500 17 is_stmt 1 discriminator 2 view .LVU409
 500:xiagb/bottom/cli.cpp **** 
 1607              		.loc 1 500 40 is_stmt 0 discriminator 2 view .LVU410
 1608 0010 2046     		mov	r0, r4
 1609 0012 FFF7FEFF 		bl	strlen
 1610              	.LVL135:
 500:xiagb/bottom/cli.cpp **** 
 1611              		.loc 1 500 31 discriminator 2 view .LVU411
 1612 0016 0444     		add	r4, r4, r0
 1613              	.LVL136:
 504:xiagb/bottom/cli.cpp ****                 //Âú®"Task"ÂêéÈù¢Ê∑ªÂä†ÊúÄÂ§ßÈÖçÁΩÆÁöÑÊï∞ÈáèÁöÑÁ©∫Ê†º
 1614              		.loc 1 504 17 is_stmt 1 discriminator 2 view .LVU412
 504:xiagb/bottom/cli.cpp ****                 //Âú®"Task"ÂêéÈù¢Ê∑ªÂä†ÊúÄÂ§ßÈÖçÁΩÆÁöÑÊï∞ÈáèÁöÑÁ©∫Ê†º
 1615              		.loc 1 504 58 discriminator 2 view .LVU413
 506:xiagb/bottom/cli.cpp ****                 {
 1616              		.loc 1 506 17 discriminator 2 view .LVU414
 506:xiagb/bottom/cli.cpp ****                 {
 1617              		.loc 1 506 36 is_stmt 0 discriminator 2 view .LVU415
 1618 0018 0423     		movs	r3, #4
 1619 001a 0EE0     		b	.L116
 1620              	.LVL137:
 1621              	.L119:
 1622              	.LCFI25:
 1623              		.cfi_def_cfa_offset 0
 1624              		.cfi_restore 4
 1625              		.cfi_restore 14
 496:xiagb/bottom/cli.cpp **** 
 1626              		.loc 1 496 17 is_stmt 1 view .LVU416
 1627              	.LBB40:
 1628              	.LBI40:
 191:Middlewares/Third_Party/FreeRTOS/Source/portable/GCC/ARM_CM3/portmacro.h **** {
 1629              		.loc 2 191 30 view .LVU417
 1630              	.LBB41:
 193:Middlewares/Third_Party/FreeRTOS/Source/portable/GCC/ARM_CM3/portmacro.h **** 
 1631              		.loc 2 193 1 view .LVU418
 195:Middlewares/Third_Party/FreeRTOS/Source/portable/GCC/ARM_CM3/portmacro.h **** 	(
 1632              		.loc 2 195 2 view .LVU419
 1633              		.loc 2 202 3 is_stmt 0 view .LVU420
 1634              		.syntax unified
 1635              	@ 202 "Middlewares/Third_Party/FreeRTOS/Source/portable/GCC/ARM_CM3/portmacro.h" 1
 1636 001c 4FF05003 			mov r3, #80												
 1637 0020 83F31188 		msr basepri, r3											
 1638 0024 BFF36F8F 		isb														
 1639 0028 BFF34F8F 		dsb														
 1640              	
 1641              	@ 0 "" 2
 1642              	.LVL138:
 1643              		.thumb
 1644              		.syntax unified
 1645              	.L114:
 1646              		.loc 2 202 3 view .LVU421
 1647              	.LBE41:
 1648              	.LBE40:
 496:xiagb/bottom/cli.cpp **** 
ARM GAS  C:\Users\XieFang\AppData\Local\Temp\ccBi1CPH.s 			page 51


 1649              		.loc 1 496 17 is_stmt 1 discriminator 1 view .LVU422
 496:xiagb/bottom/cli.cpp **** 
 1650              		.loc 1 496 17 discriminator 1 view .LVU423
 1651 002c FEE7     		b	.L114
 1652              	.LVL139:
 1653              	.L120:
 1654              	.LCFI26:
 1655              		.cfi_def_cfa_offset 8
 1656              		.cfi_offset 4, -8
 1657              		.cfi_offset 14, -4
 509:xiagb/bottom/cli.cpp ****                     pcWriteBuffer++;
 1658              		.loc 1 509 21 discriminator 2 view .LVU424
 509:xiagb/bottom/cli.cpp ****                     pcWriteBuffer++;
 1659              		.loc 1 509 36 is_stmt 0 discriminator 2 view .LVU425
 1660 002e 2022     		movs	r2, #32
 1661 0030 2270     		strb	r2, [r4]
 510:xiagb/bottom/cli.cpp **** 
 1662              		.loc 1 510 21 is_stmt 1 discriminator 2 view .LVU426
 1663              	.LVL140:
 513:xiagb/bottom/cli.cpp ****                 }
 1664              		.loc 1 513 21 discriminator 2 view .LVU427
 513:xiagb/bottom/cli.cpp ****                 }
 1665              		.loc 1 513 36 is_stmt 0 discriminator 2 view .LVU428
 1666 0032 0022     		movs	r2, #0
 1667 0034 04F8012F 		strb	r2, [r4, #1]!
 1668              	.LVL141:
 506:xiagb/bottom/cli.cpp ****                 {
 1669              		.loc 1 506 17 is_stmt 1 discriminator 2 view .LVU429
 1670 0038 0133     		adds	r3, r3, #1
 1671              	.LVL142:
 1672              	.L116:
 506:xiagb/bottom/cli.cpp ****                 {
 1673              		.loc 1 506 68 discriminator 3 view .LVU430
 1674 003a 0C2B     		cmp	r3, #12
 1675 003c F7DD     		ble	.L120
 515:xiagb/bottom/cli.cpp ****                 vTaskList(pcWriteBuffer + strlen(pcHeader));
 1676              		.loc 1 515 17 view .LVU431
 515:xiagb/bottom/cli.cpp ****                 vTaskList(pcWriteBuffer + strlen(pcHeader));
 1677              		.loc 1 515 23 is_stmt 0 view .LVU432
 1678 003e 5622     		movs	r2, #86
 1679 0040 0549     		ldr	r1, .L121+4
 1680 0042 2046     		mov	r0, r4
 1681 0044 FFF7FEFF 		bl	memcpy
 1682              	.LVL143:
 516:xiagb/bottom/cli.cpp **** 
 1683              		.loc 1 516 17 is_stmt 1 view .LVU433
 516:xiagb/bottom/cli.cpp **** 
 1684              		.loc 1 516 26 is_stmt 0 view .LVU434
 1685 0048 04F15500 		add	r0, r4, #85
 1686 004c FFF7FEFF 		bl	vTaskList
 1687              	.LVL144:
 520:xiagb/bottom/cli.cpp ****             }
 1688              		.loc 1 520 17 is_stmt 1 view .LVU435
 521:xiagb/bottom/cli.cpp **** 
 1689              		.loc 1 521 13 is_stmt 0 view .LVU436
 1690 0050 0020     		movs	r0, #0
 1691 0052 10BD     		pop	{r4, pc}
ARM GAS  C:\Users\XieFang\AppData\Local\Temp\ccBi1CPH.s 			page 52


 1692              	.LVL145:
 1693              	.L122:
 521:xiagb/bottom/cli.cpp **** 
 1694              		.loc 1 521 13 view .LVU437
 1695              		.align	2
 1696              	.L121:
 1697 0054 00000000 		.word	.LC6
 1698 0058 08000000 		.word	.LC7
 1699              		.cfi_endproc
 1700              	.LFE315:
 1701              		.fnend
 1703              		.section	.rodata._ZN5xiagb15parserNamespace12cliNamespace19prvQueryHeapCommandEPcjPKc.str1.4,"aMS"
 1704              		.align	2
 1705              	.LC8:
 1706 0000 43757272 		.ascii	"Current free heap %d bytes, minimum ever free heap "
 1706      656E7420 
 1706      66726565 
 1706      20686561 
 1706      70202564 
 1707 0033 25642062 		.ascii	"%d bytes\015\012\000"
 1707      79746573 
 1707      0D0A00
 1708              		.section	.text._ZN5xiagb15parserNamespace12cliNamespace19prvQueryHeapCommandEPcjPKc,"ax",%progbits
 1709              		.align	1
 1710              		.global	_ZN5xiagb15parserNamespace12cliNamespace19prvQueryHeapCommandEPcjPKc
 1711              		.syntax unified
 1712              		.thumb
 1713              		.thumb_func
 1714              		.fpu softvfp
 1716              	_ZN5xiagb15parserNamespace12cliNamespace19prvQueryHeapCommandEPcjPKc:
 1717              		.fnstart
 1718              	.LVL146:
 1719              	.LFB316:
 525:xiagb/bottom/cli.cpp ****                 /* Remove compile time warnings about unused parameters, and check the
 1720              		.loc 1 525 13 is_stmt 1 view -0
 1721              		.cfi_startproc
 1722              		@ args = 0, pretend = 0, frame = 0
 1723              		@ frame_needed = 0, uses_anonymous_args = 0
 525:xiagb/bottom/cli.cpp ****                 /* Remove compile time warnings about unused parameters, and check the
 1724              		.loc 1 525 13 is_stmt 0 view .LVU439
 1725 0000 38B5     		push	{r3, r4, r5, lr}
 1726              		.save {r3, r4, r5, lr}
 1727              	.LCFI27:
 1728              		.cfi_def_cfa_offset 16
 1729              		.cfi_offset 3, -16
 1730              		.cfi_offset 4, -12
 1731              		.cfi_offset 5, -8
 1732              		.cfi_offset 14, -4
 529:xiagb/bottom/cli.cpp ****                 (void)xWriteBufferLen;
 1733              		.loc 1 529 17 is_stmt 1 view .LVU440
 530:xiagb/bottom/cli.cpp ****                 configASSERT(pcWriteBuffer);
 1734              		.loc 1 530 17 view .LVU441
 531:xiagb/bottom/cli.cpp **** 
 1735              		.loc 1 531 17 view .LVU442
 1736 0002 68B1     		cbz	r0, .L127
 1737 0004 0546     		mov	r5, r0
 531:xiagb/bottom/cli.cpp **** 
ARM GAS  C:\Users\XieFang\AppData\Local\Temp\ccBi1CPH.s 			page 53


 1738              		.loc 1 531 44 discriminator 2 view .LVU443
 533:xiagb/bottom/cli.cpp **** 
 1739              		.loc 1 533 17 discriminator 2 view .LVU444
 533:xiagb/bottom/cli.cpp **** 
 1740              		.loc 1 533 132 is_stmt 0 discriminator 2 view .LVU445
 1741 0006 FFF7FEFF 		bl	xPortGetFreeHeapSize
 1742              	.LVL147:
 533:xiagb/bottom/cli.cpp **** 
 1743              		.loc 1 533 132 discriminator 2 view .LVU446
 1744 000a 0446     		mov	r4, r0
 533:xiagb/bottom/cli.cpp **** 
 1745              		.loc 1 533 172 discriminator 2 view .LVU447
 1746 000c FFF7FEFF 		bl	xPortGetMinimumEverFreeHeapSize
 1747              	.LVL148:
 1748 0010 0346     		mov	r3, r0
 533:xiagb/bottom/cli.cpp **** 
 1749              		.loc 1 533 24 discriminator 2 view .LVU448
 1750 0012 2246     		mov	r2, r4
 1751 0014 0749     		ldr	r1, .L128
 1752 0016 2846     		mov	r0, r5
 1753 0018 FFF7FEFF 		bl	sprintf
 1754              	.LVL149:
 537:xiagb/bottom/cli.cpp ****             }
 1755              		.loc 1 537 17 is_stmt 1 discriminator 2 view .LVU449
 538:xiagb/bottom/cli.cpp **** 
 1756              		.loc 1 538 13 is_stmt 0 discriminator 2 view .LVU450
 1757 001c 0020     		movs	r0, #0
 1758 001e 38BD     		pop	{r3, r4, r5, pc}
 1759              	.LVL150:
 1760              	.L127:
 531:xiagb/bottom/cli.cpp **** 
 1761              		.loc 1 531 17 is_stmt 1 view .LVU451
 1762              	.LBB42:
 1763              	.LBI42:
 191:Middlewares/Third_Party/FreeRTOS/Source/portable/GCC/ARM_CM3/portmacro.h **** {
 1764              		.loc 2 191 30 view .LVU452
 1765              	.LBB43:
 193:Middlewares/Third_Party/FreeRTOS/Source/portable/GCC/ARM_CM3/portmacro.h **** 
 1766              		.loc 2 193 1 view .LVU453
 195:Middlewares/Third_Party/FreeRTOS/Source/portable/GCC/ARM_CM3/portmacro.h **** 	(
 1767              		.loc 2 195 2 view .LVU454
 1768              		.loc 2 202 3 is_stmt 0 view .LVU455
 1769              		.syntax unified
 1770              	@ 202 "Middlewares/Third_Party/FreeRTOS/Source/portable/GCC/ARM_CM3/portmacro.h" 1
 1771 0020 4FF05003 			mov r3, #80												
 1772 0024 83F31188 		msr basepri, r3											
 1773 0028 BFF36F8F 		isb														
 1774 002c BFF34F8F 		dsb														
 1775              	
 1776              	@ 0 "" 2
 1777              	.LVL151:
 1778              		.thumb
 1779              		.syntax unified
 1780              	.L125:
 1781              		.loc 2 202 3 view .LVU456
 1782              	.LBE43:
 1783              	.LBE42:
ARM GAS  C:\Users\XieFang\AppData\Local\Temp\ccBi1CPH.s 			page 54


 531:xiagb/bottom/cli.cpp **** 
 1784              		.loc 1 531 17 is_stmt 1 discriminator 1 view .LVU457
 531:xiagb/bottom/cli.cpp **** 
 1785              		.loc 1 531 17 discriminator 1 view .LVU458
 1786 0030 FEE7     		b	.L125
 1787              	.L129:
 1788 0032 00BF     		.align	2
 1789              	.L128:
 1790 0034 00000000 		.word	.LC8
 1791              		.cfi_endproc
 1792              	.LFE316:
 1793              		.fnend
 1795              		.section	.text._ZN5xiagb15parserNamespace12cliNamespace8cliClass26vRegisterSampleCLICommandsEv,"ax
 1796              		.align	1
 1797              		.global	_ZN5xiagb15parserNamespace12cliNamespace8cliClass26vRegisterSampleCLICommandsEv
 1798              		.syntax unified
 1799              		.thumb
 1800              		.thumb_func
 1801              		.fpu softvfp
 1803              	_ZN5xiagb15parserNamespace12cliNamespace8cliClass26vRegisterSampleCLICommandsEv:
 1804              		.fnstart
 1805              	.LFB318:
 626:xiagb/bottom/cli.cpp **** 
 627:xiagb/bottom/cli.cpp ****             void cliClass::vRegisterSampleCLICommands()
 628:xiagb/bottom/cli.cpp ****             {
 1806              		.loc 1 628 13 view -0
 1807              		.cfi_startproc
 1808              		@ args = 0, pretend = 0, frame = 0
 1809              		@ frame_needed = 0, uses_anonymous_args = 0
 1810 0000 08B5     		push	{r3, lr}
 1811              		.save {r3, lr}
 1812              	.LCFI28:
 1813              		.cfi_def_cfa_offset 8
 1814              		.cfi_offset 3, -8
 1815              		.cfi_offset 14, -4
 629:xiagb/bottom/cli.cpp ****                 if (registerFlag)
 1816              		.loc 1 629 17 view .LVU460
 1817 0002 054B     		ldr	r3, .L134
 1818 0004 1B78     		ldrb	r3, [r3]	@ zero_extendqisi2
 1819 0006 03B1     		cbz	r3, .L133
 1820              	.L130:
 630:xiagb/bottom/cli.cpp ****                     return;
 631:xiagb/bottom/cli.cpp ****                 registerFlag = true;
 632:xiagb/bottom/cli.cpp **** 
 633:xiagb/bottom/cli.cpp ****                 // FreeRTOS_CLIRegisterCommand(&xTaskStats);
 634:xiagb/bottom/cli.cpp ****                 FreeRTOS_CLIRegisterCommand(&xParameterEcho);
 635:xiagb/bottom/cli.cpp ****                 // FreeRTOS_CLIRegisterCommand(&xQueryHeap);
 636:xiagb/bottom/cli.cpp ****             }
 1821              		.loc 1 636 13 is_stmt 0 view .LVU461
 1822 0008 08BD     		pop	{r3, pc}
 1823              	.L133:
 631:xiagb/bottom/cli.cpp **** 
 1824              		.loc 1 631 17 is_stmt 1 view .LVU462
 631:xiagb/bottom/cli.cpp **** 
 1825              		.loc 1 631 30 is_stmt 0 view .LVU463
 1826 000a 034B     		ldr	r3, .L134
 1827 000c 0122     		movs	r2, #1
ARM GAS  C:\Users\XieFang\AppData\Local\Temp\ccBi1CPH.s 			page 55


 1828 000e 1A70     		strb	r2, [r3]
 634:xiagb/bottom/cli.cpp ****                 // FreeRTOS_CLIRegisterCommand(&xQueryHeap);
 1829              		.loc 1 634 17 is_stmt 1 view .LVU464
 634:xiagb/bottom/cli.cpp ****                 // FreeRTOS_CLIRegisterCommand(&xQueryHeap);
 1830              		.loc 1 634 44 is_stmt 0 view .LVU465
 1831 0010 0248     		ldr	r0, .L134+4
 1832 0012 FFF7FEFF 		bl	_ZN5xiagb15parserNamespace12cliNamespace27FreeRTOS_CLIRegisterCommandEPKNS1_3cmdE
 1833              	.LVL152:
 1834 0016 F7E7     		b	.L130
 1835              	.L135:
 1836              		.align	2
 1837              	.L134:
 1838 0018 00000000 		.word	.LANCHOR7
 1839 001c 00000000 		.word	.LANCHOR8
 1840              		.cfi_endproc
 1841              	.LFE318:
 1842              		.fnend
 1844              		.section	.rodata._ZN5xiagb15parserNamespace12cliNamespace8cliClass4initEPNS_22communicationNamespa
 1845              		.align	2
 1846              	.LC9:
 1847 0000 46726565 		.ascii	"FreeRTOS command server.\015\012Type Help to view a"
 1847      52544F53 
 1847      20636F6D 
 1847      6D616E64 
 1847      20736572 
 1848 002d 206C6973 		.ascii	" list of registered commands.\015\012\015\012>\000"
 1848      74206F66 
 1848      20726567 
 1848      69737465 
 1848      72656420 
 1849              		.section	.text._ZN5xiagb15parserNamespace12cliNamespace8cliClass4initEPNS_22communicationNamespace
 1850              		.align	1
 1851              		.global	_ZN5xiagb15parserNamespace12cliNamespace8cliClass4initEPNS_22communicationNamespace13uartN
 1852              		.syntax unified
 1853              		.thumb
 1854              		.thumb_func
 1855              		.fpu softvfp
 1857              	_ZN5xiagb15parserNamespace12cliNamespace8cliClass4initEPNS_22communicationNamespace13uartNamespace9
 1858              		.fnstart
 1859              	.LVL153:
 1860              	.LFB302:
  87:xiagb/bottom/cli.cpp ****                 this->uartHandle = uartHandle;
 1861              		.loc 1 87 13 is_stmt 1 view -0
 1862              		.cfi_startproc
 1863              		@ args = 0, pretend = 0, frame = 0
 1864              		@ frame_needed = 0, uses_anonymous_args = 0
  87:xiagb/bottom/cli.cpp ****                 this->uartHandle = uartHandle;
 1865              		.loc 1 87 13 is_stmt 0 view .LVU467
 1866 0000 10B5     		push	{r4, lr}
 1867              		.save {r4, lr}
 1868              	.LCFI29:
 1869              		.cfi_def_cfa_offset 8
 1870              		.cfi_offset 4, -8
 1871              		.cfi_offset 14, -4
 1872 0002 0446     		mov	r4, r0
  88:xiagb/bottom/cli.cpp **** 
 1873              		.loc 1 88 17 is_stmt 1 view .LVU468
ARM GAS  C:\Users\XieFang\AppData\Local\Temp\ccBi1CPH.s 			page 56


  88:xiagb/bottom/cli.cpp **** 
 1874              		.loc 1 88 34 is_stmt 0 view .LVU469
 1875 0004 8160     		str	r1, [r0, #8]
  90:xiagb/bottom/cli.cpp ****                 while (mutex == 0)
 1876              		.loc 1 90 17 is_stmt 1 view .LVU470
  90:xiagb/bottom/cli.cpp ****                 while (mutex == 0)
 1877              		.loc 1 90 35 is_stmt 0 view .LVU471
 1878 0006 0020     		movs	r0, #0
 1879              	.LVL154:
  90:xiagb/bottom/cli.cpp ****                 while (mutex == 0)
 1880              		.loc 1 90 35 view .LVU472
 1881 0008 FFF7FEFF 		bl	osMutexNew
 1882              	.LVL155:
  90:xiagb/bottom/cli.cpp ****                 while (mutex == 0)
 1883              		.loc 1 90 23 view .LVU473
 1884 000c 6062     		str	r0, [r4, #36]
 1885              	.L137:
  91:xiagb/bottom/cli.cpp ****                     ;
 1886              		.loc 1 91 17 is_stmt 1 view .LVU474
  91:xiagb/bottom/cli.cpp ****                     ;
 1887              		.loc 1 91 30 view .LVU475
 1888 000e 0028     		cmp	r0, #0
 1889 0010 FDD0     		beq	.L137
  94:xiagb/bottom/cli.cpp ****                 while (rxQueue == 0)
 1890              		.loc 1 94 17 view .LVU476
  94:xiagb/bottom/cli.cpp ****                 while (rxQueue == 0)
 1891              		.loc 1 94 44 is_stmt 0 view .LVU477
 1892 0012 0022     		movs	r2, #0
 1893 0014 0121     		movs	r1, #1
 1894 0016 2088     		ldrh	r0, [r4]
 1895 0018 FFF7FEFF 		bl	osMessageQueueNew
 1896              	.LVL156:
  94:xiagb/bottom/cli.cpp ****                 while (rxQueue == 0)
 1897              		.loc 1 94 25 view .LVU478
 1898 001c E060     		str	r0, [r4, #12]
 1899              	.L138:
  95:xiagb/bottom/cli.cpp ****                     ;
 1900              		.loc 1 95 17 is_stmt 1 view .LVU479
  95:xiagb/bottom/cli.cpp ****                     ;
 1901              		.loc 1 95 32 view .LVU480
 1902 001e 0028     		cmp	r0, #0
 1903 0020 FDD0     		beq	.L138
  98:xiagb/bottom/cli.cpp ****                 while (inputBuffer == 0)
 1904              		.loc 1 98 17 view .LVU481
  98:xiagb/bottom/cli.cpp ****                 while (inputBuffer == 0)
 1905              		.loc 1 98 58 is_stmt 0 view .LVU482
 1906 0022 6088     		ldrh	r0, [r4, #2]
 1907 0024 FFF7FEFF 		bl	_Znaj
 1908              	.LVL157:
  98:xiagb/bottom/cli.cpp ****                 while (inputBuffer == 0)
 1909              		.loc 1 98 29 view .LVU483
 1910 0028 2061     		str	r0, [r4, #16]
 1911              	.L139:
  99:xiagb/bottom/cli.cpp ****                     ;
 1912              		.loc 1 99 17 is_stmt 1 view .LVU484
  99:xiagb/bottom/cli.cpp ****                     ;
 1913              		.loc 1 99 36 view .LVU485
ARM GAS  C:\Users\XieFang\AppData\Local\Temp\ccBi1CPH.s 			page 57


 1914 002a 0028     		cmp	r0, #0
 1915 002c FDD0     		beq	.L139
 101:xiagb/bottom/cli.cpp ****                 while (lastCommandBuffer == 0)
 1916              		.loc 1 101 17 view .LVU486
 101:xiagb/bottom/cli.cpp ****                 while (lastCommandBuffer == 0)
 1917              		.loc 1 101 64 is_stmt 0 view .LVU487
 1918 002e 6088     		ldrh	r0, [r4, #2]
 1919 0030 FFF7FEFF 		bl	_Znaj
 1920              	.LVL158:
 101:xiagb/bottom/cli.cpp ****                 while (lastCommandBuffer == 0)
 1921              		.loc 1 101 35 view .LVU488
 1922 0034 6061     		str	r0, [r4, #20]
 1923              	.L140:
 102:xiagb/bottom/cli.cpp ****                     ;
 1924              		.loc 1 102 17 is_stmt 1 view .LVU489
 102:xiagb/bottom/cli.cpp ****                     ;
 1925              		.loc 1 102 42 view .LVU490
 1926 0036 0028     		cmp	r0, #0
 1927 0038 FDD0     		beq	.L140
 104:xiagb/bottom/cli.cpp ****                 while (outputBuffer == 0)
 1928              		.loc 1 104 17 view .LVU491
 104:xiagb/bottom/cli.cpp ****                 while (outputBuffer == 0)
 1929              		.loc 1 104 60 is_stmt 0 view .LVU492
 1930 003a A088     		ldrh	r0, [r4, #4]
 1931 003c FFF7FEFF 		bl	_Znaj
 1932              	.LVL159:
 104:xiagb/bottom/cli.cpp ****                 while (outputBuffer == 0)
 1933              		.loc 1 104 30 view .LVU493
 1934 0040 E061     		str	r0, [r4, #28]
 1935              	.L141:
 105:xiagb/bottom/cli.cpp ****                     ;
 1936              		.loc 1 105 17 is_stmt 1 view .LVU494
 105:xiagb/bottom/cli.cpp ****                     ;
 1937              		.loc 1 105 37 view .LVU495
 1938 0042 0028     		cmp	r0, #0
 1939 0044 FDD0     		beq	.L141
 108:xiagb/bottom/cli.cpp **** 
 1940              		.loc 1 108 17 view .LVU496
 108:xiagb/bottom/cli.cpp **** 
 1941              		.loc 1 108 26 is_stmt 0 view .LVU497
 1942 0046 0349     		ldr	r1, .L143
 1943 0048 2046     		mov	r0, r4
 1944 004a FFF7FEFF 		bl	_ZN5xiagb15parserNamespace12cliNamespace8cliClass9outputStrEPh
 1945              	.LVL160:
 111:xiagb/bottom/cli.cpp ****             }
 1946              		.loc 1 111 17 is_stmt 1 view .LVU498
 111:xiagb/bottom/cli.cpp ****             }
 1947              		.loc 1 111 43 is_stmt 0 view .LVU499
 1948 004e FFF7FEFF 		bl	_ZN5xiagb15parserNamespace12cliNamespace8cliClass26vRegisterSampleCLICommandsEv
 1949              	.LVL161:
 112:xiagb/bottom/cli.cpp **** 
 1950              		.loc 1 112 13 view .LVU500
 1951 0052 10BD     		pop	{r4, pc}
 1952              	.LVL162:
 1953              	.L144:
 112:xiagb/bottom/cli.cpp **** 
 1954              		.loc 1 112 13 view .LVU501
ARM GAS  C:\Users\XieFang\AppData\Local\Temp\ccBi1CPH.s 			page 58


 1955              		.align	2
 1956              	.L143:
 1957 0054 00000000 		.word	.LC9
 1958              		.cfi_endproc
 1959              	.LFE302:
 1960              		.fnend
 1962              		.global	_ZN5xiagb15parserNamespace12cliNamespace13echoDataQueueE
 1963              		.global	_ZN5xiagb15parserNamespace12cliNamespace19xRegisteredCommandsE
 1964              		.section	.rodata.str1.4,"aMS",%progbits,1
 1965              		.align	2
 1966              	.LC10:
 1967 0000 6563686F 		.ascii	"echo\000"
 1967      00
 1968 0005 000000   		.align	2
 1969              	.LC11:
 1970 0008 0D0A6563 		.ascii	"\015\012echo <...>:\015\012 Take variable number of"
 1970      686F203C 
 1970      2E2E2E3E 
 1970      3A0D0A20 
 1970      54616B65 
 1971 002f 20706172 		.ascii	" parameters, echos each in turn.\015\012\000"
 1971      616D6574 
 1971      6572732C 
 1971      20656368 
 1971      6F732065 
 1972 0052 0000     		.align	2
 1973              	.LC12:
 1974 0054 68656C70 		.ascii	"help\000"
 1974      00
 1975 0059 000000   		.align	2
 1976              	.LC13:
 1977 005c 0D0A6865 		.ascii	"\015\012help:\015\012 Lists all the registered comm"
 1977      6C703A0D 
 1977      0A204C69 
 1977      73747320 
 1977      616C6C20 
 1978 0083 616E6473 		.ascii	"ands.\015\012\000"
 1978      2E0D0A00 
 1979              		.global	_ZN5xiagb15parserNamespace12cliNamespace8cliClass12registerFlagE
 1980              		.section	.bss._ZN5xiagb15parserNamespace12cliNamespace13echoDataQueueE,"aw",%nobits
 1981              		.align	2
 1982              		.set	.LANCHOR2,. + 0
 1985              	_ZN5xiagb15parserNamespace12cliNamespace13echoDataQueueE:
 1986 0000 00000000 		.space	4
 1987              		.section	.bss._ZN5xiagb15parserNamespace12cliNamespace8cliClass12registerFlagE,"aw",%nobits
 1988              		.set	.LANCHOR7,. + 0
 1991              	_ZN5xiagb15parserNamespace12cliNamespace8cliClass12registerFlagE:
 1992 0000 00       		.space	1
 1993              		.section	.bss._ZZN5xiagb15parserNamespace12cliNamespace14prvHelpCommandEPcjPKcE9pxCommand,"aw",%no
 1994              		.align	2
 1995              		.set	.LANCHOR0,. + 0
 1998              	_ZZN5xiagb15parserNamespace12cliNamespace14prvHelpCommandEPcjPKcE9pxCommand:
 1999 0000 00000000 		.space	4
 2000              		.section	.bss._ZZN5xiagb15parserNamespace12cliNamespace23prvParameterEchoCommandEPcjPKcE17uxParame
 2001              		.align	2
 2002              		.set	.LANCHOR4,. + 0
 2005              	_ZZN5xiagb15parserNamespace12cliNamespace23prvParameterEchoCommandEPcjPKcE17uxParameterNumber:
ARM GAS  C:\Users\XieFang\AppData\Local\Temp\ccBi1CPH.s 			page 59


 2006 0000 00000000 		.space	4
 2007              		.section	.bss._ZZN5xiagb15parserNamespace12cliNamespace23prvParameterEchoCommandEPcjPKcE5count,"aw
 2008              		.set	.LANCHOR5,. + 0
 2011              	_ZZN5xiagb15parserNamespace12cliNamespace23prvParameterEchoCommandEPcjPKcE5count:
 2012 0000 00       		.space	1
 2013              		.section	.bss._ZZN5xiagb15parserNamespace12cliNamespace23prvParameterEchoCommandEPcjPKcE9argBuffer
 2014              		.align	2
 2015              		.set	.LANCHOR6,. + 0
 2018              	_ZZN5xiagb15parserNamespace12cliNamespace23prvParameterEchoCommandEPcjPKcE9argBuffer:
 2019 0000 00000000 		.space	80
 2019      00000000 
 2019      00000000 
 2019      00000000 
 2019      00000000 
 2020              		.section	.data._ZN5xiagb15parserNamespace12cliNamespace19xRegisteredCommandsE,"aw"
 2021              		.align	2
 2022              		.set	.LANCHOR1,. + 0
 2025              	_ZN5xiagb15parserNamespace12cliNamespace19xRegisteredCommandsE:
 2026 0000 00000000 		.word	_ZN5xiagb15parserNamespace12cliNamespaceL12xHelpCommandE
 2027 0004 00000000 		.word	0
 2028              		.section	.data._ZZN5xiagb15parserNamespace12cliNamespace27FreeRTOS_CLIRegisterCommandEPKNS1_3cmdEE
 2029              		.align	2
 2030              		.set	.LANCHOR3,. + 0
 2033              	_ZZN5xiagb15parserNamespace12cliNamespace27FreeRTOS_CLIRegisterCommandEPKNS1_3cmdEE19pxLastCommandI
 2034 0000 00000000 		.word	_ZN5xiagb15parserNamespace12cliNamespace19xRegisteredCommandsE
 2035              		.section	.rodata._ZN5xiagb15parserNamespace12cliNamespaceL12xHelpCommandE,"a"
 2036              		.align	2
 2039              	_ZN5xiagb15parserNamespace12cliNamespaceL12xHelpCommandE:
 2040 0000 54000000 		.word	.LC12
 2041 0004 5C000000 		.word	.LC13
 2042 0008 00000000 		.word	_ZN5xiagb15parserNamespace12cliNamespace14prvHelpCommandEPcjPKc
 2043 000c 00       		.byte	0
 2044 000d 000000   		.space	3
 2045              		.section	.rodata._ZN5xiagb15parserNamespace12cliNamespaceL14xParameterEchoE,"a"
 2046              		.align	2
 2047              		.set	.LANCHOR8,. + 0
 2050              	_ZN5xiagb15parserNamespace12cliNamespaceL14xParameterEchoE:
 2051 0000 00000000 		.word	.LC10
 2052 0004 08000000 		.word	.LC11
 2053 0008 00000000 		.word	_ZN5xiagb15parserNamespace12cliNamespace23prvParameterEchoCommandEPcjPKc
 2054 000c FF       		.byte	-1
 2055 000d 000000   		.space	3
 2056              		.text
 2057              	.Letext0:
 2058              		.file 3 "d:\\zkrj\\gnu arm embedded toolchain\\9 2020-q2-update\\arm-none-eabi\\include\\machine\\
 2059              		.file 4 "d:\\zkrj\\gnu arm embedded toolchain\\9 2020-q2-update\\arm-none-eabi\\include\\sys\\_std
 2060              		.file 5 "Drivers/CMSIS/Include/core_cm3.h"
 2061              		.file 6 "Drivers/CMSIS/Device/ST/STM32F1xx/Include/system_stm32f1xx.h"
 2062              		.file 7 "Drivers/CMSIS/Device/ST/STM32F1xx/Include/stm32f103xb.h"
 2063              		.file 8 "Drivers/CMSIS/Device/ST/STM32F1xx/Include/stm32f1xx.h"
 2064              		.file 9 "d:\\zkrj\\gnu arm embedded toolchain\\9 2020-q2-update\\lib\\gcc\\arm-none-eabi\\9.3.1\\i
 2065              		.file 10 "Drivers/STM32F1xx_HAL_Driver/Inc/stm32f1xx_hal_def.h"
 2066              		.file 11 "Drivers/STM32F1xx_HAL_Driver/Inc/stm32f1xx_hal_dma.h"
 2067              		.file 12 "Drivers/STM32F1xx_HAL_Driver/Inc/stm32f1xx_hal_uart.h"
 2068              		.file 13 "Drivers/STM32F1xx_HAL_Driver/Inc/stm32f1xx_hal.h"
 2069              		.file 14 "Middlewares/Third_Party/FreeRTOS/Source/CMSIS_RTOS_V2/cmsis_os2.h"
 2070              		.file 15 "xiagb/bottom/uart.hpp"
ARM GAS  C:\Users\XieFang\AppData\Local\Temp\ccBi1CPH.s 			page 60


 2071              		.file 16 "xiagb/bottom/cli.hpp"
 2072              		.file 17 "d:\\zkrj\\gnu arm embedded toolchain\\9 2020-q2-update\\arm-none-eabi\\include\\sys\\_ty
 2073              		.file 18 "d:\\zkrj\\gnu arm embedded toolchain\\9 2020-q2-update\\arm-none-eabi\\include\\sys\\ree
 2074              		.file 19 "d:\\zkrj\\gnu arm embedded toolchain\\9 2020-q2-update\\arm-none-eabi\\include\\sys\\loc
 2075              		.file 20 "d:\\zkrj\\gnu arm embedded toolchain\\9 2020-q2-update\\arm-none-eabi\\include\\c++\\9.3
 2076              		.file 21 "d:\\zkrj\\gnu arm embedded toolchain\\9 2020-q2-update\\arm-none-eabi\\include\\c++\\9.3
 2077              		.file 22 "d:\\zkrj\\gnu arm embedded toolchain\\9 2020-q2-update\\arm-none-eabi\\include\\c++\\9.3
 2078              		.file 23 "d:\\zkrj\\gnu arm embedded toolchain\\9 2020-q2-update\\arm-none-eabi\\include\\math.h"
 2079              		.file 24 "d:\\zkrj\\gnu arm embedded toolchain\\9 2020-q2-update\\arm-none-eabi\\include\\stdlib.h
 2080              		.file 25 "d:\\zkrj\\gnu arm embedded toolchain\\9 2020-q2-update\\arm-none-eabi\\include\\c++\\9.3
 2081              		.file 26 "d:\\zkrj\\gnu arm embedded toolchain\\9 2020-q2-update\\arm-none-eabi\\include\\stdio.h"
 2082              		.file 27 "d:\\zkrj\\gnu arm embedded toolchain\\9 2020-q2-update\\arm-none-eabi\\include\\string.h
 2083              		.file 28 "Middlewares/Third_Party/FreeRTOS/Source/include/portable.h"
 2084              		.file 29 "Middlewares/Third_Party/FreeRTOS/Source/include/task.h"
 2085              		.file 30 "<built-in>"
ARM GAS  C:\Users\XieFang\AppData\Local\Temp\ccBi1CPH.s 			page 61

